(dp1
S'output'
p2
S"<type 'exceptions.SyntaxError'> keyword can't be an expression (product.py, line 21)"
p3
sS'layer'
p4
S'/home/michael/Projects/Scrum-Web-Application-by-web2py/web2py/applications/Scrum_Web_Application/controllers/product.py'
p5
sS'code'
p6
S'# -*- coding: utf-8 -*-\n\n#\n#\n#\n#\n\ndef index():\n    """\n    Shows all created products\n    """\n    products = db().select(db.product.id, db.product.title, orderby=db.product.id)\n    return dict(products=products)\n\ndef create():\n    form = crud.create(db.product, next=URL(\'index\'))\n    return dict(form=form)\n\ndef show():\n    this_product = db.product(request.args(0)) or redirect(URL(\'index\'))\n    product_backlogs = db(db.backlog.product_id = this_product.id).select()\n    return dict(prdocut=this_product, backlogs = product_backlogs)\n\ndef edit():\n    this_product = db.product(request.args(0)) or redirect(URL(\'index\'))\n    form = crud.update(db.product, this_product, next=URL(\'index\'))\n    return dict(form=form)\n\nresponse._vars=response._caller(edit)\n'
p7
sS'snapshot'
p8
(dp9
S'exception'
p10
(dp11
S'__getslice__'
p12
S"<method-wrapper '__getslice__' of exceptions.SyntaxError object>"
p13
sS'text'
p14
S"'product_backlogs = db(db.backlog.product_id = this_product.id).select()\\n'"
p15
sS'__str__'
p16
S"<method-wrapper '__str__' of exceptions.SyntaxError object>"
p17
sS'__reduce__'
p18
S'<built-in method __reduce__ of exceptions.SyntaxError object>'
p19
sS'__dict__'
p20
S'{}'
p21
sS'__sizeof__'
p22
S'<built-in method __sizeof__ of exceptions.SyntaxError object>'
p23
sS'__init__'
p24
S"<method-wrapper '__init__' of exceptions.SyntaxError object>"
p25
sS'__setattr__'
p26
S"<method-wrapper '__setattr__' of exceptions.SyntaxError object>"
p27
sS'__reduce_ex__'
p28
S'<built-in method __reduce_ex__ of exceptions.SyntaxError object>'
p29
sS'__new__'
p30
S'<built-in method __new__ of type object>'
p31
sS'__format__'
p32
S'<built-in method __format__ of exceptions.SyntaxError object>'
p33
sS'__class__'
p34
S"<type 'exceptions.SyntaxError'>"
p35
sS'filename'
p36
S"'/home/michael/Projects/Scrum-Web-Application-by-...ions/Scrum_Web_Application/controllers/product.py'"
p37
sS'lineno'
p38
S'21'
p39
sS'msg'
p40
S'"keyword can\'t be an expression"'
p41
sS'__doc__'
p42
S"'Invalid syntax.'"
p43
sS'__getitem__'
p44
S"<method-wrapper '__getitem__' of exceptions.SyntaxError object>"
p45
sS'__setstate__'
p46
S'<built-in method __setstate__ of exceptions.SyntaxError object>'
p47
sS'__getattribute__'
p48
S"<method-wrapper '__getattribute__' of exceptions.SyntaxError object>"
p49
sS'print_file_and_line'
p50
S'None'
p51
sS'args'
p52
S'("keyword can\'t be an expression", (\'/home/michael/Projects/Scrum-Web-Application-by-...ions/Scrum_Web_Application/controllers/product.py\', 21, None, \'product_backlogs = db(db.backlog.product_id = this_product.id).select()\\n\'))'
p53
sS'__subclasshook__'
p54
S'<built-in method __subclasshook__ of type object>'
p55
sS'offset'
p56
S'None'
p57
sS'__unicode__'
p58
S'<built-in method __unicode__ of exceptions.SyntaxError object>'
p59
sS'__delattr__'
p60
S"<method-wrapper '__delattr__' of exceptions.SyntaxError object>"
p61
sS'__repr__'
p62
S"<method-wrapper '__repr__' of exceptions.SyntaxError object>"
p63
sS'__hash__'
p64
S"<method-wrapper '__hash__' of exceptions.SyntaxError object>"
p65
ssS'evalue'
p66
S"keyword can't be an expression (product.py, line 21)"
p67
sS'request'
p68
ccopy_reg
_reconstructor
p69
(cgluon.html
BEAUTIFY
p70
c__builtin__
object
p71
NtRp72
(dp73
S'attributes'
p74
(dp75
sS'components'
p76
(lp77
g69
(cgluon.html
TABLE
p78
g71
NtRp79
(dp80
g74
(dp81
S'level'
p82
I5
ssS'parent'
p83
Nsg76
(lp84
g69
(cgluon.html
TR
p85
g71
NtRp86
(dp87
g74
(dp88
sg83
g79
sg76
(lp89
g69
(cgluon.html
TD
p90
g71
NtRp91
(dp92
g74
(dp93
S'_style'
p94
S'font-weight:bold;vertical-align:top'
p95
ssg83
g86
sg76
(lp96
S'ajax'
p97
asbag69
(g90
g71
NtRp98
(dp99
g74
(dp100
S'_valign'
p101
S'top'
p102
ssg83
g86
sg76
(lp103
S':'
asbag69
(g90
g71
NtRp104
(dp105
g74
(dp106
sg83
g86
sg76
(lp107
g69
(g70
g71
NtRp108
(dp109
g74
(dp110
g82
I5
ssg83
g104
sg76
(lp111
S'False'
p112
asbasbasbag69
(g85
g71
NtRp113
(dp114
g74
(dp115
sg83
g79
sg76
(lp116
g69
(g90
g71
NtRp117
(dp118
g74
(dp119
g94
g95
ssg83
g113
sg76
(lp120
S'application'
p121
asbag69
(g90
g71
NtRp122
(dp123
g74
(dp124
g101
g102
ssg83
g113
sg76
(lp125
S':'
asbag69
(g90
g71
NtRp126
(dp127
g74
(dp128
sg83
g113
sg76
(lp129
g69
(g70
g71
NtRp130
(dp131
g74
(dp132
g82
I5
ssg83
g126
sg76
(lp133
S'Scrum_Web_Application'
p134
asbasbasbag69
(g85
g71
NtRp135
(dp136
g74
(dp137
sg83
g79
sg76
(lp138
g69
(g90
g71
NtRp139
(dp140
g74
(dp141
g94
g95
ssg83
g135
sg76
(lp142
g52
asbag69
(g90
g71
NtRp143
(dp144
g74
(dp145
g101
g102
ssg83
g135
sg76
(lp146
S':'
asbag69
(g90
g71
NtRp147
(dp148
g74
(dp149
sg83
g135
sg76
(lp150
g69
(g70
g71
NtRp151
(dp152
g74
(dp153
g82
I5
ssg83
g147
sg76
(lp154
g69
(g78
g71
NtRp155
(dp156
g74
(dp157
g82
I4
ssg83
Nsg76
(lp158
g69
(g85
g71
NtRp159
(dp160
g74
(dp161
sg83
g155
sg76
(lp162
g69
(g90
g71
NtRp163
(dp164
g74
(dp165
sg83
g159
sg76
(lp166
g69
(g70
g71
NtRp167
(dp168
g74
(dp169
g82
I4
ssg83
g163
sg76
(lp170
S'1'
asbasbasbasbasbasbasbag69
(g85
g71
NtRp171
(dp172
g74
(dp173
sg83
g79
sg76
(lp174
g69
(g90
g71
NtRp175
(dp176
g74
(dp177
g94
g95
ssg83
g171
sg76
(lp178
S'body'
p179
asbag69
(g90
g71
NtRp180
(dp181
g74
(dp182
g101
g102
ssg83
g171
sg76
(lp183
S':'
asbag69
(g90
g71
NtRp184
(dp185
g74
(dp186
sg83
g171
sg76
(lp187
g69
(g70
g71
NtRp188
(dp189
g74
(dp190
g82
I5
ssg83
g184
sg76
(lp191
S'<cStringIO.StringO object at 0x7fb7041351f0>'
p192
asbasbasbag69
(g85
g71
NtRp193
(dp194
g74
(dp195
sg83
g79
sg76
(lp196
g69
(g90
g71
NtRp197
(dp198
g74
(dp199
g94
g95
ssg83
g193
sg76
(lp200
S'client'
p201
asbag69
(g90
g71
NtRp202
(dp203
g74
(dp204
g101
g102
ssg83
g193
sg76
(lp205
S':'
asbag69
(g90
g71
NtRp206
(dp207
g74
(dp208
sg83
g193
sg76
(lp209
g69
(g70
g71
NtRp210
(dp211
g74
(dp212
g82
I5
ssg83
g206
sg76
(lp213
S'127.0.0.1'
p214
asbasbasbag69
(g85
g71
NtRp215
(dp216
g74
(dp217
sg83
g79
sg76
(lp218
g69
(g90
g71
NtRp219
(dp220
g74
(dp221
g94
g95
ssg83
g215
sg76
(lp222
S'controller'
p223
asbag69
(g90
g71
NtRp224
(dp225
g74
(dp226
g101
g102
ssg83
g215
sg76
(lp227
S':'
asbag69
(g90
g71
NtRp228
(dp229
g74
(dp230
sg83
g215
sg76
(lp231
g69
(g70
g71
NtRp232
(dp233
g74
(dp234
g82
I5
ssg83
g228
sg76
(lp235
S'product'
p236
asbasbasbag69
(g85
g71
NtRp237
(dp238
g74
(dp239
sg83
g79
sg76
(lp240
g69
(g90
g71
NtRp241
(dp242
g74
(dp243
g94
g95
ssg83
g237
sg76
(lp244
S'cookies'
p245
asbag69
(g90
g71
NtRp246
(dp247
g74
(dp248
g101
g102
ssg83
g237
sg76
(lp249
S':'
asbag69
(g90
g71
NtRp250
(dp251
g74
(dp252
sg83
g237
sg76
(lp253
g69
(g70
g71
NtRp254
(dp255
g74
(dp256
g82
I5
ssg83
g250
sg76
(lp257
g69
(g78
g71
NtRp258
(dp259
g74
(dp260
g82
I4
ssg83
Nsg76
(lp261
g69
(g85
g71
NtRp262
(dp263
g74
(dp264
sg83
g258
sg76
(lp265
g69
(g90
g71
NtRp266
(dp267
g74
(dp268
g94
g95
ssg83
g262
sg76
(lp269
S'session_id_admin'
p270
asbag69
(g90
g71
NtRp271
(dp272
g74
(dp273
g101
g102
ssg83
g262
sg76
(lp274
S':'
asbag69
(g90
g71
NtRp275
(dp276
g74
(dp277
sg83
g262
sg76
(lp278
g69
(g70
g71
NtRp279
(dp280
g74
(dp281
g82
I4
ssg83
g275
sg76
(lp282
g69
(g78
g71
NtRp283
(dp284
g74
(dp285
g82
I3
ssg83
Nsg76
(lp286
g69
(g85
g71
NtRp287
(dp288
g74
(dp289
sg83
g283
sg76
(lp290
g69
(g90
g71
NtRp291
(dp292
g74
(dp293
g94
g95
ssg83
g287
sg76
(lp294
S'comment'
p295
asbag69
(g90
g71
NtRp296
(dp297
g74
(dp298
g101
g102
ssg83
g287
sg76
(lp299
S':'
asbag69
(g90
g71
NtRp300
(dp301
g74
(dp302
sg83
g287
sg76
(lp303
g69
(g70
g71
NtRp304
(dp305
g74
(dp306
g82
I3
ssg83
g300
sg76
(lp307
S''
asbasbasbag69
(g85
g71
NtRp308
(dp309
g74
(dp310
sg83
g283
sg76
(lp311
g69
(g90
g71
NtRp312
(dp313
g74
(dp314
g94
g95
ssg83
g308
sg76
(lp315
S'domain'
p316
asbag69
(g90
g71
NtRp317
(dp318
g74
(dp319
g101
g102
ssg83
g308
sg76
(lp320
S':'
asbag69
(g90
g71
NtRp321
(dp322
g74
(dp323
sg83
g308
sg76
(lp324
g69
(g70
g71
NtRp325
(dp326
g74
(dp327
g82
I3
ssg83
g321
sg76
(lp328
S''
asbasbasbag69
(g85
g71
NtRp329
(dp330
g74
(dp331
sg83
g283
sg76
(lp332
g69
(g90
g71
NtRp333
(dp334
g74
(dp335
g94
g95
ssg83
g329
sg76
(lp336
S'expires'
p337
asbag69
(g90
g71
NtRp338
(dp339
g74
(dp340
g101
g102
ssg83
g329
sg76
(lp341
S':'
asbag69
(g90
g71
NtRp342
(dp343
g74
(dp344
sg83
g329
sg76
(lp345
g69
(g70
g71
NtRp346
(dp347
g74
(dp348
g82
I3
ssg83
g342
sg76
(lp349
S''
asbasbasbag69
(g85
g71
NtRp350
(dp351
g74
(dp352
sg83
g283
sg76
(lp353
g69
(g90
g71
NtRp354
(dp355
g74
(dp356
g94
g95
ssg83
g350
sg76
(lp357
S'httponly'
p358
asbag69
(g90
g71
NtRp359
(dp360
g74
(dp361
g101
g102
ssg83
g350
sg76
(lp362
S':'
asbag69
(g90
g71
NtRp363
(dp364
g74
(dp365
sg83
g350
sg76
(lp366
g69
(g70
g71
NtRp367
(dp368
g74
(dp369
g82
I3
ssg83
g363
sg76
(lp370
S''
asbasbasbag69
(g85
g71
NtRp371
(dp372
g74
(dp373
sg83
g283
sg76
(lp374
g69
(g90
g71
NtRp375
(dp376
g74
(dp377
g94
g95
ssg83
g371
sg76
(lp378
S'max-age'
p379
asbag69
(g90
g71
NtRp380
(dp381
g74
(dp382
g101
g102
ssg83
g371
sg76
(lp383
S':'
asbag69
(g90
g71
NtRp384
(dp385
g74
(dp386
sg83
g371
sg76
(lp387
g69
(g70
g71
NtRp388
(dp389
g74
(dp390
g82
I3
ssg83
g384
sg76
(lp391
S''
asbasbasbag69
(g85
g71
NtRp392
(dp393
g74
(dp394
sg83
g283
sg76
(lp395
g69
(g90
g71
NtRp396
(dp397
g74
(dp398
g94
g95
ssg83
g392
sg76
(lp399
S'path'
p400
asbag69
(g90
g71
NtRp401
(dp402
g74
(dp403
g101
g102
ssg83
g392
sg76
(lp404
S':'
asbag69
(g90
g71
NtRp405
(dp406
g74
(dp407
sg83
g392
sg76
(lp408
g69
(g70
g71
NtRp409
(dp410
g74
(dp411
g82
I3
ssg83
g405
sg76
(lp412
S''
asbasbasbag69
(g85
g71
NtRp413
(dp414
g74
(dp415
sg83
g283
sg76
(lp416
g69
(g90
g71
NtRp417
(dp418
g74
(dp419
g94
g95
ssg83
g413
sg76
(lp420
S'secure'
p421
asbag69
(g90
g71
NtRp422
(dp423
g74
(dp424
g101
g102
ssg83
g413
sg76
(lp425
S':'
asbag69
(g90
g71
NtRp426
(dp427
g74
(dp428
sg83
g413
sg76
(lp429
g69
(g70
g71
NtRp430
(dp431
g74
(dp432
g82
I3
ssg83
g426
sg76
(lp433
S''
asbasbasbag69
(g85
g71
NtRp434
(dp435
g74
(dp436
sg83
g283
sg76
(lp437
g69
(g90
g71
NtRp438
(dp439
g74
(dp440
g94
g95
ssg83
g434
sg76
(lp441
S'version'
p442
asbag69
(g90
g71
NtRp443
(dp444
g74
(dp445
g101
g102
ssg83
g434
sg76
(lp446
S':'
asbag69
(g90
g71
NtRp447
(dp448
g74
(dp449
sg83
g434
sg76
(lp450
g69
(g70
g71
NtRp451
(dp452
g74
(dp453
g82
I3
ssg83
g447
sg76
(lp454
S''
asbasbasbasbasbasbasbag69
(g85
g71
NtRp455
(dp456
g74
(dp457
sg83
g258
sg76
(lp458
g69
(g90
g71
NtRp459
(dp460
g74
(dp461
g94
g95
ssg83
g455
sg76
(lp462
S'session_id_mywiki'
p463
asbag69
(g90
g71
NtRp464
(dp465
g74
(dp466
g101
g102
ssg83
g455
sg76
(lp467
S':'
asbag69
(g90
g71
NtRp468
(dp469
g74
(dp470
sg83
g455
sg76
(lp471
g69
(g70
g71
NtRp472
(dp473
g74
(dp474
g82
I4
ssg83
g468
sg76
(lp475
g69
(g78
g71
NtRp476
(dp477
g74
(dp478
g82
I3
ssg83
Nsg76
(lp479
g69
(g85
g71
NtRp480
(dp481
g74
(dp482
sg83
g476
sg76
(lp483
g69
(g90
g71
NtRp484
(dp485
g74
(dp486
g94
g95
ssg83
g480
sg76
(lp487
g295
asbag69
(g90
g71
NtRp488
(dp489
g74
(dp490
g101
g102
ssg83
g480
sg76
(lp491
S':'
asbag69
(g90
g71
NtRp492
(dp493
g74
(dp494
sg83
g480
sg76
(lp495
g69
(g70
g71
NtRp496
(dp497
g74
(dp498
g82
I3
ssg83
g492
sg76
(lp499
S''
asbasbasbag69
(g85
g71
NtRp500
(dp501
g74
(dp502
sg83
g476
sg76
(lp503
g69
(g90
g71
NtRp504
(dp505
g74
(dp506
g94
g95
ssg83
g500
sg76
(lp507
g316
asbag69
(g90
g71
NtRp508
(dp509
g74
(dp510
g101
g102
ssg83
g500
sg76
(lp511
S':'
asbag69
(g90
g71
NtRp512
(dp513
g74
(dp514
sg83
g500
sg76
(lp515
g69
(g70
g71
NtRp516
(dp517
g74
(dp518
g82
I3
ssg83
g512
sg76
(lp519
S''
asbasbasbag69
(g85
g71
NtRp520
(dp521
g74
(dp522
sg83
g476
sg76
(lp523
g69
(g90
g71
NtRp524
(dp525
g74
(dp526
g94
g95
ssg83
g520
sg76
(lp527
g337
asbag69
(g90
g71
NtRp528
(dp529
g74
(dp530
g101
g102
ssg83
g520
sg76
(lp531
S':'
asbag69
(g90
g71
NtRp532
(dp533
g74
(dp534
sg83
g520
sg76
(lp535
g69
(g70
g71
NtRp536
(dp537
g74
(dp538
g82
I3
ssg83
g532
sg76
(lp539
S''
asbasbasbag69
(g85
g71
NtRp540
(dp541
g74
(dp542
sg83
g476
sg76
(lp543
g69
(g90
g71
NtRp544
(dp545
g74
(dp546
g94
g95
ssg83
g540
sg76
(lp547
g358
asbag69
(g90
g71
NtRp548
(dp549
g74
(dp550
g101
g102
ssg83
g540
sg76
(lp551
S':'
asbag69
(g90
g71
NtRp552
(dp553
g74
(dp554
sg83
g540
sg76
(lp555
g69
(g70
g71
NtRp556
(dp557
g74
(dp558
g82
I3
ssg83
g552
sg76
(lp559
S''
asbasbasbag69
(g85
g71
NtRp560
(dp561
g74
(dp562
sg83
g476
sg76
(lp563
g69
(g90
g71
NtRp564
(dp565
g74
(dp566
g94
g95
ssg83
g560
sg76
(lp567
g379
asbag69
(g90
g71
NtRp568
(dp569
g74
(dp570
g101
g102
ssg83
g560
sg76
(lp571
S':'
asbag69
(g90
g71
NtRp572
(dp573
g74
(dp574
sg83
g560
sg76
(lp575
g69
(g70
g71
NtRp576
(dp577
g74
(dp578
g82
I3
ssg83
g572
sg76
(lp579
S''
asbasbasbag69
(g85
g71
NtRp580
(dp581
g74
(dp582
sg83
g476
sg76
(lp583
g69
(g90
g71
NtRp584
(dp585
g74
(dp586
g94
g95
ssg83
g580
sg76
(lp587
g400
asbag69
(g90
g71
NtRp588
(dp589
g74
(dp590
g101
g102
ssg83
g580
sg76
(lp591
S':'
asbag69
(g90
g71
NtRp592
(dp593
g74
(dp594
sg83
g580
sg76
(lp595
g69
(g70
g71
NtRp596
(dp597
g74
(dp598
g82
I3
ssg83
g592
sg76
(lp599
S''
asbasbasbag69
(g85
g71
NtRp600
(dp601
g74
(dp602
sg83
g476
sg76
(lp603
g69
(g90
g71
NtRp604
(dp605
g74
(dp606
g94
g95
ssg83
g600
sg76
(lp607
g421
asbag69
(g90
g71
NtRp608
(dp609
g74
(dp610
g101
g102
ssg83
g600
sg76
(lp611
S':'
asbag69
(g90
g71
NtRp612
(dp613
g74
(dp614
sg83
g600
sg76
(lp615
g69
(g70
g71
NtRp616
(dp617
g74
(dp618
g82
I3
ssg83
g612
sg76
(lp619
S''
asbasbasbag69
(g85
g71
NtRp620
(dp621
g74
(dp622
sg83
g476
sg76
(lp623
g69
(g90
g71
NtRp624
(dp625
g74
(dp626
g94
g95
ssg83
g620
sg76
(lp627
g442
asbag69
(g90
g71
NtRp628
(dp629
g74
(dp630
g101
g102
ssg83
g620
sg76
(lp631
S':'
asbag69
(g90
g71
NtRp632
(dp633
g74
(dp634
sg83
g620
sg76
(lp635
g69
(g70
g71
NtRp636
(dp637
g74
(dp638
g82
I3
ssg83
g632
sg76
(lp639
S''
asbasbasbasbasbasbasbag69
(g85
g71
NtRp640
(dp641
g74
(dp642
sg83
g258
sg76
(lp643
g69
(g90
g71
NtRp644
(dp645
g74
(dp646
g94
g95
ssg83
g640
sg76
(lp647
S'session_id_scrum_web_application'
p648
asbag69
(g90
g71
NtRp649
(dp650
g74
(dp651
g101
g102
ssg83
g640
sg76
(lp652
S':'
asbag69
(g90
g71
NtRp653
(dp654
g74
(dp655
sg83
g640
sg76
(lp656
g69
(g70
g71
NtRp657
(dp658
g74
(dp659
g82
I4
ssg83
g653
sg76
(lp660
g69
(g78
g71
NtRp661
(dp662
g74
(dp663
g82
I3
ssg83
Nsg76
(lp664
g69
(g85
g71
NtRp665
(dp666
g74
(dp667
sg83
g661
sg76
(lp668
g69
(g90
g71
NtRp669
(dp670
g74
(dp671
g94
g95
ssg83
g665
sg76
(lp672
g295
asbag69
(g90
g71
NtRp673
(dp674
g74
(dp675
g101
g102
ssg83
g665
sg76
(lp676
S':'
asbag69
(g90
g71
NtRp677
(dp678
g74
(dp679
sg83
g665
sg76
(lp680
g69
(g70
g71
NtRp681
(dp682
g74
(dp683
g82
I3
ssg83
g677
sg76
(lp684
S''
asbasbasbag69
(g85
g71
NtRp685
(dp686
g74
(dp687
sg83
g661
sg76
(lp688
g69
(g90
g71
NtRp689
(dp690
g74
(dp691
g94
g95
ssg83
g685
sg76
(lp692
g316
asbag69
(g90
g71
NtRp693
(dp694
g74
(dp695
g101
g102
ssg83
g685
sg76
(lp696
S':'
asbag69
(g90
g71
NtRp697
(dp698
g74
(dp699
sg83
g685
sg76
(lp700
g69
(g70
g71
NtRp701
(dp702
g74
(dp703
g82
I3
ssg83
g697
sg76
(lp704
S''
asbasbasbag69
(g85
g71
NtRp705
(dp706
g74
(dp707
sg83
g661
sg76
(lp708
g69
(g90
g71
NtRp709
(dp710
g74
(dp711
g94
g95
ssg83
g705
sg76
(lp712
g337
asbag69
(g90
g71
NtRp713
(dp714
g74
(dp715
g101
g102
ssg83
g705
sg76
(lp716
S':'
asbag69
(g90
g71
NtRp717
(dp718
g74
(dp719
sg83
g705
sg76
(lp720
g69
(g70
g71
NtRp721
(dp722
g74
(dp723
g82
I3
ssg83
g717
sg76
(lp724
S''
asbasbasbag69
(g85
g71
NtRp725
(dp726
g74
(dp727
sg83
g661
sg76
(lp728
g69
(g90
g71
NtRp729
(dp730
g74
(dp731
g94
g95
ssg83
g725
sg76
(lp732
g358
asbag69
(g90
g71
NtRp733
(dp734
g74
(dp735
g101
g102
ssg83
g725
sg76
(lp736
S':'
asbag69
(g90
g71
NtRp737
(dp738
g74
(dp739
sg83
g725
sg76
(lp740
g69
(g70
g71
NtRp741
(dp742
g74
(dp743
g82
I3
ssg83
g737
sg76
(lp744
S''
asbasbasbag69
(g85
g71
NtRp745
(dp746
g74
(dp747
sg83
g661
sg76
(lp748
g69
(g90
g71
NtRp749
(dp750
g74
(dp751
g94
g95
ssg83
g745
sg76
(lp752
g379
asbag69
(g90
g71
NtRp753
(dp754
g74
(dp755
g101
g102
ssg83
g745
sg76
(lp756
S':'
asbag69
(g90
g71
NtRp757
(dp758
g74
(dp759
sg83
g745
sg76
(lp760
g69
(g70
g71
NtRp761
(dp762
g74
(dp763
g82
I3
ssg83
g757
sg76
(lp764
S''
asbasbasbag69
(g85
g71
NtRp765
(dp766
g74
(dp767
sg83
g661
sg76
(lp768
g69
(g90
g71
NtRp769
(dp770
g74
(dp771
g94
g95
ssg83
g765
sg76
(lp772
g400
asbag69
(g90
g71
NtRp773
(dp774
g74
(dp775
g101
g102
ssg83
g765
sg76
(lp776
S':'
asbag69
(g90
g71
NtRp777
(dp778
g74
(dp779
sg83
g765
sg76
(lp780
g69
(g70
g71
NtRp781
(dp782
g74
(dp783
g82
I3
ssg83
g777
sg76
(lp784
S''
asbasbasbag69
(g85
g71
NtRp785
(dp786
g74
(dp787
sg83
g661
sg76
(lp788
g69
(g90
g71
NtRp789
(dp790
g74
(dp791
g94
g95
ssg83
g785
sg76
(lp792
g421
asbag69
(g90
g71
NtRp793
(dp794
g74
(dp795
g101
g102
ssg83
g785
sg76
(lp796
S':'
asbag69
(g90
g71
NtRp797
(dp798
g74
(dp799
sg83
g785
sg76
(lp800
g69
(g70
g71
NtRp801
(dp802
g74
(dp803
g82
I3
ssg83
g797
sg76
(lp804
S''
asbasbasbag69
(g85
g71
NtRp805
(dp806
g74
(dp807
sg83
g661
sg76
(lp808
g69
(g90
g71
NtRp809
(dp810
g74
(dp811
g94
g95
ssg83
g805
sg76
(lp812
g442
asbag69
(g90
g71
NtRp813
(dp814
g74
(dp815
g101
g102
ssg83
g805
sg76
(lp816
S':'
asbag69
(g90
g71
NtRp817
(dp818
g74
(dp819
sg83
g805
sg76
(lp820
g69
(g70
g71
NtRp821
(dp822
g74
(dp823
g82
I3
ssg83
g817
sg76
(lp824
S''
asbasbasbasbasbasbasbag69
(g85
g71
NtRp825
(dp826
g74
(dp827
sg83
g258
sg76
(lp828
g69
(g90
g71
NtRp829
(dp830
g74
(dp831
g94
g95
ssg83
g825
sg76
(lp832
S'session_id_welcome'
p833
asbag69
(g90
g71
NtRp834
(dp835
g74
(dp836
g101
g102
ssg83
g825
sg76
(lp837
S':'
asbag69
(g90
g71
NtRp838
(dp839
g74
(dp840
sg83
g825
sg76
(lp841
g69
(g70
g71
NtRp842
(dp843
g74
(dp844
g82
I4
ssg83
g838
sg76
(lp845
g69
(g78
g71
NtRp846
(dp847
g74
(dp848
g82
I3
ssg83
Nsg76
(lp849
g69
(g85
g71
NtRp850
(dp851
g74
(dp852
sg83
g846
sg76
(lp853
g69
(g90
g71
NtRp854
(dp855
g74
(dp856
g94
g95
ssg83
g850
sg76
(lp857
g295
asbag69
(g90
g71
NtRp858
(dp859
g74
(dp860
g101
g102
ssg83
g850
sg76
(lp861
S':'
asbag69
(g90
g71
NtRp862
(dp863
g74
(dp864
sg83
g850
sg76
(lp865
g69
(g70
g71
NtRp866
(dp867
g74
(dp868
g82
I3
ssg83
g862
sg76
(lp869
S''
asbasbasbag69
(g85
g71
NtRp870
(dp871
g74
(dp872
sg83
g846
sg76
(lp873
g69
(g90
g71
NtRp874
(dp875
g74
(dp876
g94
g95
ssg83
g870
sg76
(lp877
g316
asbag69
(g90
g71
NtRp878
(dp879
g74
(dp880
g101
g102
ssg83
g870
sg76
(lp881
S':'
asbag69
(g90
g71
NtRp882
(dp883
g74
(dp884
sg83
g870
sg76
(lp885
g69
(g70
g71
NtRp886
(dp887
g74
(dp888
g82
I3
ssg83
g882
sg76
(lp889
S''
asbasbasbag69
(g85
g71
NtRp890
(dp891
g74
(dp892
sg83
g846
sg76
(lp893
g69
(g90
g71
NtRp894
(dp895
g74
(dp896
g94
g95
ssg83
g890
sg76
(lp897
g337
asbag69
(g90
g71
NtRp898
(dp899
g74
(dp900
g101
g102
ssg83
g890
sg76
(lp901
S':'
asbag69
(g90
g71
NtRp902
(dp903
g74
(dp904
sg83
g890
sg76
(lp905
g69
(g70
g71
NtRp906
(dp907
g74
(dp908
g82
I3
ssg83
g902
sg76
(lp909
S''
asbasbasbag69
(g85
g71
NtRp910
(dp911
g74
(dp912
sg83
g846
sg76
(lp913
g69
(g90
g71
NtRp914
(dp915
g74
(dp916
g94
g95
ssg83
g910
sg76
(lp917
g358
asbag69
(g90
g71
NtRp918
(dp919
g74
(dp920
g101
g102
ssg83
g910
sg76
(lp921
S':'
asbag69
(g90
g71
NtRp922
(dp923
g74
(dp924
sg83
g910
sg76
(lp925
g69
(g70
g71
NtRp926
(dp927
g74
(dp928
g82
I3
ssg83
g922
sg76
(lp929
S''
asbasbasbag69
(g85
g71
NtRp930
(dp931
g74
(dp932
sg83
g846
sg76
(lp933
g69
(g90
g71
NtRp934
(dp935
g74
(dp936
g94
g95
ssg83
g930
sg76
(lp937
g379
asbag69
(g90
g71
NtRp938
(dp939
g74
(dp940
g101
g102
ssg83
g930
sg76
(lp941
S':'
asbag69
(g90
g71
NtRp942
(dp943
g74
(dp944
sg83
g930
sg76
(lp945
g69
(g70
g71
NtRp946
(dp947
g74
(dp948
g82
I3
ssg83
g942
sg76
(lp949
S''
asbasbasbag69
(g85
g71
NtRp950
(dp951
g74
(dp952
sg83
g846
sg76
(lp953
g69
(g90
g71
NtRp954
(dp955
g74
(dp956
g94
g95
ssg83
g950
sg76
(lp957
g400
asbag69
(g90
g71
NtRp958
(dp959
g74
(dp960
g101
g102
ssg83
g950
sg76
(lp961
S':'
asbag69
(g90
g71
NtRp962
(dp963
g74
(dp964
sg83
g950
sg76
(lp965
g69
(g70
g71
NtRp966
(dp967
g74
(dp968
g82
I3
ssg83
g962
sg76
(lp969
S''
asbasbasbag69
(g85
g71
NtRp970
(dp971
g74
(dp972
sg83
g846
sg76
(lp973
g69
(g90
g71
NtRp974
(dp975
g74
(dp976
g94
g95
ssg83
g970
sg76
(lp977
g421
asbag69
(g90
g71
NtRp978
(dp979
g74
(dp980
g101
g102
ssg83
g970
sg76
(lp981
S':'
asbag69
(g90
g71
NtRp982
(dp983
g74
(dp984
sg83
g970
sg76
(lp985
g69
(g70
g71
NtRp986
(dp987
g74
(dp988
g82
I3
ssg83
g982
sg76
(lp989
S''
asbasbasbag69
(g85
g71
NtRp990
(dp991
g74
(dp992
sg83
g846
sg76
(lp993
g69
(g90
g71
NtRp994
(dp995
g74
(dp996
g94
g95
ssg83
g990
sg76
(lp997
g442
asbag69
(g90
g71
NtRp998
(dp999
g74
(dp1000
g101
g102
ssg83
g990
sg76
(lp1001
S':'
asbag69
(g90
g71
NtRp1002
(dp1003
g74
(dp1004
sg83
g990
sg76
(lp1005
g69
(g70
g71
NtRp1006
(dp1007
g74
(dp1008
g82
I3
ssg83
g1002
sg76
(lp1009
S''
asbasbasbasbasbasbasbasbasbasbasbag69
(g85
g71
NtRp1010
(dp1011
g74
(dp1012
sg83
g79
sg76
(lp1013
g69
(g90
g71
NtRp1014
(dp1015
g74
(dp1016
g94
g95
ssg83
g1010
sg76
(lp1017
S'env'
p1018
asbag69
(g90
g71
NtRp1019
(dp1020
g74
(dp1021
g101
g102
ssg83
g1010
sg76
(lp1022
S':'
asbag69
(g90
g71
NtRp1023
(dp1024
g74
(dp1025
sg83
g1010
sg76
(lp1026
g69
(g70
g71
NtRp1027
(dp1028
g74
(dp1029
g82
I5
ssg83
g1023
sg76
(lp1030
g69
(g78
g71
NtRp1031
(dp1032
g74
(dp1033
g82
I4
ssg83
Nsg76
(lp1034
g69
(g85
g71
NtRp1035
(dp1036
g74
(dp1037
sg83
g1031
sg76
(lp1038
g69
(g90
g71
NtRp1039
(dp1040
g74
(dp1041
g94
g95
ssg83
g1035
sg76
(lp1042
S'app_folders'
p1043
asbag69
(g90
g71
NtRp1044
(dp1045
g74
(dp1046
g101
g102
ssg83
g1035
sg76
(lp1047
S':'
asbag69
(g90
g71
NtRp1048
(dp1049
g74
(dp1050
sg83
g1035
sg76
(lp1051
g69
(g70
g71
NtRp1052
(dp1053
g74
(dp1054
g82
I4
ssg83
g1048
sg76
(lp1055
S"set(['/home/michael/Projects/Scrum-Web-Application-by-web2py/web2py/applications/admin/', '/home/michael/Projects/Scrum-Web-Application-by-web2py/web2py/applications/Scrum_Web_Application/', '/home/michael/Projects/Scrum-Web-Application-by-web2py/web2py/applications/welcome/'])"
p1056
asbasbasbag69
(g85
g71
NtRp1057
(dp1058
g74
(dp1059
sg83
g1031
sg76
(lp1060
g69
(g90
g71
NtRp1061
(dp1062
g74
(dp1063
g94
g95
ssg83
g1057
sg76
(lp1064
S'applications_parent'
p1065
asbag69
(g90
g71
NtRp1066
(dp1067
g74
(dp1068
g101
g102
ssg83
g1057
sg76
(lp1069
S':'
asbag69
(g90
g71
NtRp1070
(dp1071
g74
(dp1072
sg83
g1057
sg76
(lp1073
g69
(g70
g71
NtRp1074
(dp1075
g74
(dp1076
g82
I4
ssg83
g1070
sg76
(lp1077
S'/home/michael/Projects/Scrum-Web-Application-by-web2py/web2py'
p1078
asbasbasbag69
(g85
g71
NtRp1079
(dp1080
g74
(dp1081
sg83
g1031
sg76
(lp1082
g69
(g90
g71
NtRp1083
(dp1084
g74
(dp1085
g94
g95
ssg83
g1079
sg76
(lp1086
S'cmd_args'
p1087
asbag69
(g90
g71
NtRp1088
(dp1089
g74
(dp1090
g101
g102
ssg83
g1079
sg76
(lp1091
S':'
asbag69
(g90
g71
NtRp1092
(dp1093
g74
(dp1094
sg83
g1079
sg76
(lp1095
g69
(g70
g71
NtRp1096
(dp1097
g74
(dp1098
g82
I4
ssg83
g1092
sg76
(lp1099
g69
(g78
g71
NtRp1100
(dp1101
g74
(dp1102
g82
I3
ssg83
Nsg76
(lp1103
sbasbasbasbag69
(g85
g71
NtRp1104
(dp1105
g74
(dp1106
sg83
g1031
sg76
(lp1107
g69
(g90
g71
NtRp1108
(dp1109
g74
(dp1110
g94
g95
ssg83
g1104
sg76
(lp1111
S'cmd_options'
p1112
asbag69
(g90
g71
NtRp1113
(dp1114
g74
(dp1115
g101
g102
ssg83
g1104
sg76
(lp1116
S':'
asbag69
(g90
g71
NtRp1117
(dp1118
g74
(dp1119
sg83
g1104
sg76
(lp1120
g69
(g70
g71
NtRp1121
(dp1122
g74
(dp1123
g82
I4
ssg83
g1117
sg76
(lp1124
S"<Values at 0x21fe7e8: {'verbose': False, 'ip': '127.0.0.1', 'shutdown_timeout': 5, 'taskbar': False, 'nocron': False, 'pid_filename': 'httpserver.pid', 'maxthreads': None, 'softcron': False, 'server_name': 'Lotus', 'bpython': False, 'nogui': False, 'port': 8000, 'extcron': False, 'debuglevel': 30, 'test': None, 'folder': '/home/michael/Projects/Scrum-Web-Application-by-web2py/web2py', 'config': '', 'import_models': False, 'winservice': '', 'shell': None, 'run': '', 'log_filename': 'httpserver.log', 'args': [''], 'socket_timeout': 5, 'ssl_ca_certificate': None, 'scheduler': None, 'profiler_filename': None, 'ssl_private_key': '', 'password': 'merlin', 'request_queue_size': 5, 'ssl_certificate': '', 'cronjob': False, 'numthreads': None, 'quiet': False, 'interfaces': None, 'minthreads': None, 'timeout': 10, 'plain': False, 'nobanner': False}>"
p1125
asbasbasbag69
(g85
g71
NtRp1126
(dp1127
g74
(dp1128
sg83
g1031
sg76
(lp1129
g69
(g90
g71
NtRp1130
(dp1131
g74
(dp1132
g94
g95
ssg83
g1126
sg76
(lp1133
S'db_sessions'
p1134
asbag69
(g90
g71
NtRp1135
(dp1136
g74
(dp1137
g101
g102
ssg83
g1126
sg76
(lp1138
S':'
asbag69
(g90
g71
NtRp1139
(dp1140
g74
(dp1141
sg83
g1126
sg76
(lp1142
g69
(g70
g71
NtRp1143
(dp1144
g74
(dp1145
g82
I4
ssg83
g1139
sg76
(lp1146
S'set([])'
p1147
asbasbasbag69
(g85
g71
NtRp1148
(dp1149
g74
(dp1150
sg83
g1031
sg76
(lp1151
g69
(g90
g71
NtRp1152
(dp1153
g74
(dp1154
g94
g95
ssg83
g1148
sg76
(lp1155
S'debugging'
p1156
asbag69
(g90
g71
NtRp1157
(dp1158
g74
(dp1159
g101
g102
ssg83
g1148
sg76
(lp1160
S':'
asbag69
(g90
g71
NtRp1161
(dp1162
g74
(dp1163
sg83
g1148
sg76
(lp1164
g69
(g70
g71
NtRp1165
(dp1166
g74
(dp1167
g82
I4
ssg83
g1161
sg76
(lp1168
g112
asbasbasbag69
(g85
g71
NtRp1169
(dp1170
g74
(dp1171
sg83
g1031
sg76
(lp1172
g69
(g90
g71
NtRp1173
(dp1174
g74
(dp1175
g94
g95
ssg83
g1169
sg76
(lp1176
S'gluon_parent'
p1177
asbag69
(g90
g71
NtRp1178
(dp1179
g74
(dp1180
g101
g102
ssg83
g1169
sg76
(lp1181
S':'
asbag69
(g90
g71
NtRp1182
(dp1183
g74
(dp1184
sg83
g1169
sg76
(lp1185
g69
(g70
g71
NtRp1186
(dp1187
g74
(dp1188
g82
I4
ssg83
g1182
sg76
(lp1189
S'/home/michael/Projects/Scrum-Web-Application-by-web2py/web2py'
p1190
asbasbasbag69
(g85
g71
NtRp1191
(dp1192
g74
(dp1193
sg83
g1031
sg76
(lp1194
g69
(g90
g71
NtRp1195
(dp1196
g74
(dp1197
g94
g95
ssg83
g1191
sg76
(lp1198
S'http_accept'
p1199
asbag69
(g90
g71
NtRp1200
(dp1201
g74
(dp1202
g101
g102
ssg83
g1191
sg76
(lp1203
S':'
asbag69
(g90
g71
NtRp1204
(dp1205
g74
(dp1206
sg83
g1191
sg76
(lp1207
g69
(g70
g71
NtRp1208
(dp1209
g74
(dp1210
g82
I4
ssg83
g1204
sg76
(lp1211
S'text/html,application/xhtml+xml,application/xml;q=0.9,*/*;q=0.8'
p1212
asbasbasbag69
(g85
g71
NtRp1213
(dp1214
g74
(dp1215
sg83
g1031
sg76
(lp1216
g69
(g90
g71
NtRp1217
(dp1218
g74
(dp1219
g94
g95
ssg83
g1213
sg76
(lp1220
S'http_accept_charset'
p1221
asbag69
(g90
g71
NtRp1222
(dp1223
g74
(dp1224
g101
g102
ssg83
g1213
sg76
(lp1225
S':'
asbag69
(g90
g71
NtRp1226
(dp1227
g74
(dp1228
sg83
g1213
sg76
(lp1229
g69
(g70
g71
NtRp1230
(dp1231
g74
(dp1232
g82
I4
ssg83
g1226
sg76
(lp1233
S'ISO-8859-1,utf-8;q=0.7,*;q=0.3'
p1234
asbasbasbag69
(g85
g71
NtRp1235
(dp1236
g74
(dp1237
sg83
g1031
sg76
(lp1238
g69
(g90
g71
NtRp1239
(dp1240
g74
(dp1241
g94
g95
ssg83
g1235
sg76
(lp1242
S'http_accept_encoding'
p1243
asbag69
(g90
g71
NtRp1244
(dp1245
g74
(dp1246
g101
g102
ssg83
g1235
sg76
(lp1247
S':'
asbag69
(g90
g71
NtRp1248
(dp1249
g74
(dp1250
sg83
g1235
sg76
(lp1251
g69
(g70
g71
NtRp1252
(dp1253
g74
(dp1254
g82
I4
ssg83
g1248
sg76
(lp1255
S'gzip,deflate,sdch'
p1256
asbasbasbag69
(g85
g71
NtRp1257
(dp1258
g74
(dp1259
sg83
g1031
sg76
(lp1260
g69
(g90
g71
NtRp1261
(dp1262
g74
(dp1263
g94
g95
ssg83
g1257
sg76
(lp1264
S'http_accept_language'
p1265
asbag69
(g90
g71
NtRp1266
(dp1267
g74
(dp1268
g101
g102
ssg83
g1257
sg76
(lp1269
S':'
asbag69
(g90
g71
NtRp1270
(dp1271
g74
(dp1272
sg83
g1257
sg76
(lp1273
g69
(g70
g71
NtRp1274
(dp1275
g74
(dp1276
g82
I4
ssg83
g1270
sg76
(lp1277
S'en-US,en;q=0.8'
p1278
asbasbasbag69
(g85
g71
NtRp1279
(dp1280
g74
(dp1281
sg83
g1031
sg76
(lp1282
g69
(g90
g71
NtRp1283
(dp1284
g74
(dp1285
g94
g95
ssg83
g1279
sg76
(lp1286
S'http_connection'
p1287
asbag69
(g90
g71
NtRp1288
(dp1289
g74
(dp1290
g101
g102
ssg83
g1279
sg76
(lp1291
S':'
asbag69
(g90
g71
NtRp1292
(dp1293
g74
(dp1294
sg83
g1279
sg76
(lp1295
g69
(g70
g71
NtRp1296
(dp1297
g74
(dp1298
g82
I4
ssg83
g1292
sg76
(lp1299
S'keep-alive'
p1300
asbasbasbag69
(g85
g71
NtRp1301
(dp1302
g74
(dp1303
sg83
g1031
sg76
(lp1304
g69
(g90
g71
NtRp1305
(dp1306
g74
(dp1307
g94
g95
ssg83
g1301
sg76
(lp1308
S'http_cookie'
p1309
asbag69
(g90
g71
NtRp1310
(dp1311
g74
(dp1312
g101
g102
ssg83
g1301
sg76
(lp1313
S':'
asbag69
(g90
g71
NtRp1314
(dp1315
g74
(dp1316
sg83
g1301
sg76
(lp1317
g69
(g70
g71
NtRp1318
(dp1319
g74
(dp1320
g82
I4
ssg83
g1314
sg76
(lp1321
S'session_id_mywiki=127.0.0.1-484c01c4-fe0f-4faa-89ec-11df56e37f7c; session_id_welcome=127.0.0.1-2d010996-18a9-468c-957d-4417eb4e8201; session_id_admin=127.0.0.1-90a7f6e0-3a24-49d4-98d8-0886fb9c9b4a; session_id_scrum_web_application=127.0.0.1-249863be-67e2-47ba-9b85-a03cb2e9e8ef'
p1322
asbasbasbag69
(g85
g71
NtRp1323
(dp1324
g74
(dp1325
sg83
g1031
sg76
(lp1326
g69
(g90
g71
NtRp1327
(dp1328
g74
(dp1329
g94
g95
ssg83
g1323
sg76
(lp1330
S'http_host'
p1331
asbag69
(g90
g71
NtRp1332
(dp1333
g74
(dp1334
g101
g102
ssg83
g1323
sg76
(lp1335
S':'
asbag69
(g90
g71
NtRp1336
(dp1337
g74
(dp1338
sg83
g1323
sg76
(lp1339
g69
(g70
g71
NtRp1340
(dp1341
g74
(dp1342
g82
I4
ssg83
g1336
sg76
(lp1343
S'127.0.0.1:8000'
p1344
asbasbasbag69
(g85
g71
NtRp1345
(dp1346
g74
(dp1347
sg83
g1031
sg76
(lp1348
g69
(g90
g71
NtRp1349
(dp1350
g74
(dp1351
g94
g95
ssg83
g1345
sg76
(lp1352
S'http_user_agent'
p1353
asbag69
(g90
g71
NtRp1354
(dp1355
g74
(dp1356
g101
g102
ssg83
g1345
sg76
(lp1357
S':'
asbag69
(g90
g71
NtRp1358
(dp1359
g74
(dp1360
sg83
g1345
sg76
(lp1361
g69
(g70
g71
NtRp1362
(dp1363
g74
(dp1364
g82
I4
ssg83
g1358
sg76
(lp1365
S'Mozilla/5.0 (X11; Linux x86_64) AppleWebKit/535.19 (KHTML, like Gecko) Ubuntu/12.04 Chromium/18.0.1025.151 Chrome/18.0.1025.151 Safari/535.19'
p1366
asbasbasbag69
(g85
g71
NtRp1367
(dp1368
g74
(dp1369
sg83
g1031
sg76
(lp1370
g69
(g90
g71
NtRp1371
(dp1372
g74
(dp1373
g94
g95
ssg83
g1367
sg76
(lp1374
S'is_jython'
p1375
asbag69
(g90
g71
NtRp1376
(dp1377
g74
(dp1378
g101
g102
ssg83
g1367
sg76
(lp1379
S':'
asbag69
(g90
g71
NtRp1380
(dp1381
g74
(dp1382
sg83
g1367
sg76
(lp1383
g69
(g70
g71
NtRp1384
(dp1385
g74
(dp1386
g82
I4
ssg83
g1380
sg76
(lp1387
g112
asbasbasbag69
(g85
g71
NtRp1388
(dp1389
g74
(dp1390
sg83
g1031
sg76
(lp1391
g69
(g90
g71
NtRp1392
(dp1393
g74
(dp1394
g94
g95
ssg83
g1388
sg76
(lp1395
S'is_pypy'
p1396
asbag69
(g90
g71
NtRp1397
(dp1398
g74
(dp1399
g101
g102
ssg83
g1388
sg76
(lp1400
S':'
asbag69
(g90
g71
NtRp1401
(dp1402
g74
(dp1403
sg83
g1388
sg76
(lp1404
g69
(g70
g71
NtRp1405
(dp1406
g74
(dp1407
g82
I4
ssg83
g1401
sg76
(lp1408
g112
asbasbasbag69
(g85
g71
NtRp1409
(dp1410
g74
(dp1411
sg83
g1031
sg76
(lp1412
g69
(g90
g71
NtRp1413
(dp1414
g74
(dp1415
g94
g95
ssg83
g1409
sg76
(lp1416
S'path_info'
p1417
asbag69
(g90
g71
NtRp1418
(dp1419
g74
(dp1420
g101
g102
ssg83
g1409
sg76
(lp1421
S':'
asbag69
(g90
g71
NtRp1422
(dp1423
g74
(dp1424
sg83
g1409
sg76
(lp1425
g69
(g70
g71
NtRp1426
(dp1427
g74
(dp1428
g82
I4
ssg83
g1422
sg76
(lp1429
S'/Scrum_Web_Application/product/edit/1'
p1430
asbasbasbag69
(g85
g71
NtRp1431
(dp1432
g74
(dp1433
sg83
g1031
sg76
(lp1434
g69
(g90
g71
NtRp1435
(dp1436
g74
(dp1437
g94
g95
ssg83
g1431
sg76
(lp1438
S'query_string'
p1439
asbag69
(g90
g71
NtRp1440
(dp1441
g74
(dp1442
g101
g102
ssg83
g1431
sg76
(lp1443
S':'
asbag69
(g90
g71
NtRp1444
(dp1445
g74
(dp1446
sg83
g1431
sg76
(lp1447
g69
(g70
g71
NtRp1448
(dp1449
g74
(dp1450
g82
I4
ssg83
g1444
sg76
(lp1451
S''
asbasbasbag69
(g85
g71
NtRp1452
(dp1453
g74
(dp1454
sg83
g1031
sg76
(lp1455
g69
(g90
g71
NtRp1456
(dp1457
g74
(dp1458
g94
g95
ssg83
g1452
sg76
(lp1459
S'remote_addr'
p1460
asbag69
(g90
g71
NtRp1461
(dp1462
g74
(dp1463
g101
g102
ssg83
g1452
sg76
(lp1464
S':'
asbag69
(g90
g71
NtRp1465
(dp1466
g74
(dp1467
sg83
g1452
sg76
(lp1468
g69
(g70
g71
NtRp1469
(dp1470
g74
(dp1471
g82
I4
ssg83
g1465
sg76
(lp1472
g214
asbasbasbag69
(g85
g71
NtRp1473
(dp1474
g74
(dp1475
sg83
g1031
sg76
(lp1476
g69
(g90
g71
NtRp1477
(dp1478
g74
(dp1479
g94
g95
ssg83
g1473
sg76
(lp1480
S'remote_port'
p1481
asbag69
(g90
g71
NtRp1482
(dp1483
g74
(dp1484
g101
g102
ssg83
g1473
sg76
(lp1485
S':'
asbag69
(g90
g71
NtRp1486
(dp1487
g74
(dp1488
sg83
g1473
sg76
(lp1489
g69
(g70
g71
NtRp1490
(dp1491
g74
(dp1492
g82
I4
ssg83
g1486
sg76
(lp1493
S'58311'
p1494
asbasbasbag69
(g85
g71
NtRp1495
(dp1496
g74
(dp1497
sg83
g1031
sg76
(lp1498
g69
(g90
g71
NtRp1499
(dp1500
g74
(dp1501
g94
g95
ssg83
g1495
sg76
(lp1502
S'request_method'
p1503
asbag69
(g90
g71
NtRp1504
(dp1505
g74
(dp1506
g101
g102
ssg83
g1495
sg76
(lp1507
S':'
asbag69
(g90
g71
NtRp1508
(dp1509
g74
(dp1510
sg83
g1495
sg76
(lp1511
g69
(g70
g71
NtRp1512
(dp1513
g74
(dp1514
g82
I4
ssg83
g1508
sg76
(lp1515
S'GET'
p1516
asbasbasbag69
(g85
g71
NtRp1517
(dp1518
g74
(dp1519
sg83
g1031
sg76
(lp1520
g69
(g90
g71
NtRp1521
(dp1522
g74
(dp1523
g94
g95
ssg83
g1517
sg76
(lp1524
S'script_name'
p1525
asbag69
(g90
g71
NtRp1526
(dp1527
g74
(dp1528
g101
g102
ssg83
g1517
sg76
(lp1529
S':'
asbag69
(g90
g71
NtRp1530
(dp1531
g74
(dp1532
sg83
g1517
sg76
(lp1533
g69
(g70
g71
NtRp1534
(dp1535
g74
(dp1536
g82
I4
ssg83
g1530
sg76
(lp1537
S''
asbasbasbag69
(g85
g71
NtRp1538
(dp1539
g74
(dp1540
sg83
g1031
sg76
(lp1541
g69
(g90
g71
NtRp1542
(dp1543
g74
(dp1544
g94
g95
ssg83
g1538
sg76
(lp1545
S'server_name'
p1546
asbag69
(g90
g71
NtRp1547
(dp1548
g74
(dp1549
g101
g102
ssg83
g1538
sg76
(lp1550
S':'
asbag69
(g90
g71
NtRp1551
(dp1552
g74
(dp1553
sg83
g1538
sg76
(lp1554
g69
(g70
g71
NtRp1555
(dp1556
g74
(dp1557
g82
I4
ssg83
g1551
sg76
(lp1558
S'Lotus'
p1559
asbasbasbag69
(g85
g71
NtRp1560
(dp1561
g74
(dp1562
sg83
g1031
sg76
(lp1563
g69
(g90
g71
NtRp1564
(dp1565
g74
(dp1566
g94
g95
ssg83
g1560
sg76
(lp1567
S'server_port'
p1568
asbag69
(g90
g71
NtRp1569
(dp1570
g74
(dp1571
g101
g102
ssg83
g1560
sg76
(lp1572
S':'
asbag69
(g90
g71
NtRp1573
(dp1574
g74
(dp1575
sg83
g1560
sg76
(lp1576
g69
(g70
g71
NtRp1577
(dp1578
g74
(dp1579
g82
I4
ssg83
g1573
sg76
(lp1580
S'8000'
p1581
asbasbasbag69
(g85
g71
NtRp1582
(dp1583
g74
(dp1584
sg83
g1031
sg76
(lp1585
g69
(g90
g71
NtRp1586
(dp1587
g74
(dp1588
g94
g95
ssg83
g1582
sg76
(lp1589
S'server_protocol'
p1590
asbag69
(g90
g71
NtRp1591
(dp1592
g74
(dp1593
g101
g102
ssg83
g1582
sg76
(lp1594
S':'
asbag69
(g90
g71
NtRp1595
(dp1596
g74
(dp1597
sg83
g1582
sg76
(lp1598
g69
(g70
g71
NtRp1599
(dp1600
g74
(dp1601
g82
I4
ssg83
g1595
sg76
(lp1602
S'HTTP/1.1'
p1603
asbasbasbag69
(g85
g71
NtRp1604
(dp1605
g74
(dp1606
sg83
g1031
sg76
(lp1607
g69
(g90
g71
NtRp1608
(dp1609
g74
(dp1610
g94
g95
ssg83
g1604
sg76
(lp1611
S'server_software'
p1612
asbag69
(g90
g71
NtRp1613
(dp1614
g74
(dp1615
g101
g102
ssg83
g1604
sg76
(lp1616
S':'
asbag69
(g90
g71
NtRp1617
(dp1618
g74
(dp1619
sg83
g1604
sg76
(lp1620
g69
(g70
g71
NtRp1621
(dp1622
g74
(dp1623
g82
I4
ssg83
g1617
sg76
(lp1624
S'Rocket 1.2.4'
p1625
asbasbasbag69
(g85
g71
NtRp1626
(dp1627
g74
(dp1628
sg83
g1031
sg76
(lp1629
g69
(g90
g71
NtRp1630
(dp1631
g74
(dp1632
g94
g95
ssg83
g1626
sg76
(lp1633
S'web2py_crontype'
p1634
asbag69
(g90
g71
NtRp1635
(dp1636
g74
(dp1637
g101
g102
ssg83
g1626
sg76
(lp1638
S':'
asbag69
(g90
g71
NtRp1639
(dp1640
g74
(dp1641
sg83
g1626
sg76
(lp1642
g69
(g70
g71
NtRp1643
(dp1644
g74
(dp1645
g82
I4
ssg83
g1639
sg76
(lp1646
S'hard'
p1647
asbasbasbag69
(g85
g71
NtRp1648
(dp1649
g74
(dp1650
sg83
g1031
sg76
(lp1651
g69
(g90
g71
NtRp1652
(dp1653
g74
(dp1654
g94
g95
ssg83
g1648
sg76
(lp1655
S'web2py_path'
p1656
asbag69
(g90
g71
NtRp1657
(dp1658
g74
(dp1659
g101
g102
ssg83
g1648
sg76
(lp1660
S':'
asbag69
(g90
g71
NtRp1661
(dp1662
g74
(dp1663
sg83
g1648
sg76
(lp1664
g69
(g70
g71
NtRp1665
(dp1666
g74
(dp1667
g82
I4
ssg83
g1661
sg76
(lp1668
g1078
asbasbasbag69
(g85
g71
NtRp1669
(dp1670
g74
(dp1671
sg83
g1031
sg76
(lp1672
g69
(g90
g71
NtRp1673
(dp1674
g74
(dp1675
g94
g95
ssg83
g1669
sg76
(lp1676
S'web2py_version'
p1677
asbag69
(g90
g71
NtRp1678
(dp1679
g74
(dp1680
g101
g102
ssg83
g1669
sg76
(lp1681
S':'
asbag69
(g90
g71
NtRp1682
(dp1683
g74
(dp1684
sg83
g1669
sg76
(lp1685
g69
(g70
g71
NtRp1686
(dp1687
g74
(dp1688
g82
I4
ssg83
g1682
sg76
(lp1689
g69
(g78
g71
NtRp1690
(dp1691
g74
(dp1692
g82
I3
ssg83
Nsg76
(lp1693
g69
(g85
g71
NtRp1694
(dp1695
g74
(dp1696
sg83
g1690
sg76
(lp1697
g69
(g90
g71
NtRp1698
(dp1699
g74
(dp1700
sg83
g1694
sg76
(lp1701
g69
(g70
g71
NtRp1702
(dp1703
g74
(dp1704
g82
I3
ssg83
g1698
sg76
(lp1705
S'1'
asbasbasbag69
(g85
g71
NtRp1706
(dp1707
g74
(dp1708
sg83
g1690
sg76
(lp1709
g69
(g90
g71
NtRp1710
(dp1711
g74
(dp1712
sg83
g1706
sg76
(lp1713
g69
(g70
g71
NtRp1714
(dp1715
g74
(dp1716
g82
I3
ssg83
g1710
sg76
(lp1717
S'99'
p1718
asbasbasbag69
(g85
g71
NtRp1719
(dp1720
g74
(dp1721
sg83
g1690
sg76
(lp1722
g69
(g90
g71
NtRp1723
(dp1724
g74
(dp1725
sg83
g1719
sg76
(lp1726
g69
(g70
g71
NtRp1727
(dp1728
g74
(dp1729
g82
I3
ssg83
g1723
sg76
(lp1730
S'7'
asbasbasbag69
(g85
g71
NtRp1731
(dp1732
g74
(dp1733
sg83
g1690
sg76
(lp1734
g69
(g90
g71
NtRp1735
(dp1736
g74
(dp1737
sg83
g1731
sg76
(lp1738
g69
(g70
g71
NtRp1739
(dp1740
g74
(dp1741
g82
I3
ssg83
g1735
sg76
(lp1742
S'datetime.datetime(2012, 3, 4, 22, 12, 8)'
p1743
asbasbasbag69
(g85
g71
NtRp1744
(dp1745
g74
(dp1746
sg83
g1690
sg76
(lp1747
g69
(g90
g71
NtRp1748
(dp1749
g74
(dp1750
sg83
g1744
sg76
(lp1751
g69
(g70
g71
NtRp1752
(dp1753
g74
(dp1754
g82
I3
ssg83
g1748
sg76
(lp1755
S'stable'
p1756
asbasbasbasbasbasbasbag69
(g85
g71
NtRp1757
(dp1758
g74
(dp1759
sg83
g1031
sg76
(lp1760
g69
(g90
g71
NtRp1761
(dp1762
g74
(dp1763
g94
g95
ssg83
g1757
sg76
(lp1764
S'wsgi_errors'
p1765
asbag69
(g90
g71
NtRp1766
(dp1767
g74
(dp1768
g101
g102
ssg83
g1757
sg76
(lp1769
S':'
asbag69
(g90
g71
NtRp1770
(dp1771
g74
(dp1772
sg83
g1757
sg76
(lp1773
g69
(g70
g71
NtRp1774
(dp1775
g74
(dp1776
g82
I4
ssg83
g1770
sg76
(lp1777
S"<open file '<stderr>', mode 'w' at 0x7fb71aec9270>"
p1778
asbasbasbag69
(g85
g71
NtRp1779
(dp1780
g74
(dp1781
sg83
g1031
sg76
(lp1782
g69
(g90
g71
NtRp1783
(dp1784
g74
(dp1785
g94
g95
ssg83
g1779
sg76
(lp1786
S'wsgi_file_wrapper'
p1787
asbag69
(g90
g71
NtRp1788
(dp1789
g74
(dp1790
g101
g102
ssg83
g1779
sg76
(lp1791
S':'
asbag69
(g90
g71
NtRp1792
(dp1793
g74
(dp1794
sg83
g1779
sg76
(lp1795
g69
(g70
g71
NtRp1796
(dp1797
g74
(dp1798
g82
I4
ssg83
g1792
sg76
(lp1799
S'<class wsgiref.util.FileWrapper at 0x20db940>'
p1800
asbasbasbag69
(g85
g71
NtRp1801
(dp1802
g74
(dp1803
sg83
g1031
sg76
(lp1804
g69
(g90
g71
NtRp1805
(dp1806
g74
(dp1807
g94
g95
ssg83
g1801
sg76
(lp1808
S'wsgi_input'
p1809
asbag69
(g90
g71
NtRp1810
(dp1811
g74
(dp1812
g101
g102
ssg83
g1801
sg76
(lp1813
S':'
asbag69
(g90
g71
NtRp1814
(dp1815
g74
(dp1816
sg83
g1801
sg76
(lp1817
g69
(g70
g71
NtRp1818
(dp1819
g74
(dp1820
g82
I4
ssg83
g1814
sg76
(lp1821
S'<socket._fileobject object at 0x7fb6e0259050>'
p1822
asbasbasbag69
(g85
g71
NtRp1823
(dp1824
g74
(dp1825
sg83
g1031
sg76
(lp1826
g69
(g90
g71
NtRp1827
(dp1828
g74
(dp1829
g94
g95
ssg83
g1823
sg76
(lp1830
S'wsgi_multiprocess'
p1831
asbag69
(g90
g71
NtRp1832
(dp1833
g74
(dp1834
g101
g102
ssg83
g1823
sg76
(lp1835
S':'
asbag69
(g90
g71
NtRp1836
(dp1837
g74
(dp1838
sg83
g1823
sg76
(lp1839
g69
(g70
g71
NtRp1840
(dp1841
g74
(dp1842
g82
I4
ssg83
g1836
sg76
(lp1843
g112
asbasbasbag69
(g85
g71
NtRp1844
(dp1845
g74
(dp1846
sg83
g1031
sg76
(lp1847
g69
(g90
g71
NtRp1848
(dp1849
g74
(dp1850
g94
g95
ssg83
g1844
sg76
(lp1851
S'wsgi_multithread'
p1852
asbag69
(g90
g71
NtRp1853
(dp1854
g74
(dp1855
g101
g102
ssg83
g1844
sg76
(lp1856
S':'
asbag69
(g90
g71
NtRp1857
(dp1858
g74
(dp1859
sg83
g1844
sg76
(lp1860
g69
(g70
g71
NtRp1861
(dp1862
g74
(dp1863
g82
I4
ssg83
g1857
sg76
(lp1864
S'True'
p1865
asbasbasbag69
(g85
g71
NtRp1866
(dp1867
g74
(dp1868
sg83
g1031
sg76
(lp1869
g69
(g90
g71
NtRp1870
(dp1871
g74
(dp1872
g94
g95
ssg83
g1866
sg76
(lp1873
S'wsgi_run_once'
p1874
asbag69
(g90
g71
NtRp1875
(dp1876
g74
(dp1877
g101
g102
ssg83
g1866
sg76
(lp1878
S':'
asbag69
(g90
g71
NtRp1879
(dp1880
g74
(dp1881
sg83
g1866
sg76
(lp1882
g69
(g70
g71
NtRp1883
(dp1884
g74
(dp1885
g82
I4
ssg83
g1879
sg76
(lp1886
g112
asbasbasbag69
(g85
g71
NtRp1887
(dp1888
g74
(dp1889
sg83
g1031
sg76
(lp1890
g69
(g90
g71
NtRp1891
(dp1892
g74
(dp1893
g94
g95
ssg83
g1887
sg76
(lp1894
S'wsgi_url_scheme'
p1895
asbag69
(g90
g71
NtRp1896
(dp1897
g74
(dp1898
g101
g102
ssg83
g1887
sg76
(lp1899
S':'
asbag69
(g90
g71
NtRp1900
(dp1901
g74
(dp1902
sg83
g1887
sg76
(lp1903
g69
(g70
g71
NtRp1904
(dp1905
g74
(dp1906
g82
I4
ssg83
g1900
sg76
(lp1907
S'http'
p1908
asbasbasbag69
(g85
g71
NtRp1909
(dp1910
g74
(dp1911
sg83
g1031
sg76
(lp1912
g69
(g90
g71
NtRp1913
(dp1914
g74
(dp1915
g94
g95
ssg83
g1909
sg76
(lp1916
S'wsgi_version'
p1917
asbag69
(g90
g71
NtRp1918
(dp1919
g74
(dp1920
g101
g102
ssg83
g1909
sg76
(lp1921
S':'
asbag69
(g90
g71
NtRp1922
(dp1923
g74
(dp1924
sg83
g1909
sg76
(lp1925
g69
(g70
g71
NtRp1926
(dp1927
g74
(dp1928
g82
I4
ssg83
g1922
sg76
(lp1929
g69
(g78
g71
NtRp1930
(dp1931
g74
(dp1932
g82
I3
ssg83
Nsg76
(lp1933
g69
(g85
g71
NtRp1934
(dp1935
g74
(dp1936
sg83
g1930
sg76
(lp1937
g69
(g90
g71
NtRp1938
(dp1939
g74
(dp1940
sg83
g1934
sg76
(lp1941
g69
(g70
g71
NtRp1942
(dp1943
g74
(dp1944
g82
I3
ssg83
g1938
sg76
(lp1945
S'1'
asbasbasbag69
(g85
g71
NtRp1946
(dp1947
g74
(dp1948
sg83
g1930
sg76
(lp1949
g69
(g90
g71
NtRp1950
(dp1951
g74
(dp1952
sg83
g1946
sg76
(lp1953
g69
(g70
g71
NtRp1954
(dp1955
g74
(dp1956
g82
I3
ssg83
g1950
sg76
(lp1957
S'0'
asbasbasbasbasbasbasbasbasbasbasbag69
(g85
g71
NtRp1958
(dp1959
g74
(dp1960
sg83
g79
sg76
(lp1961
g69
(g90
g71
NtRp1962
(dp1963
g74
(dp1964
g94
g95
ssg83
g1958
sg76
(lp1965
S'extension'
p1966
asbag69
(g90
g71
NtRp1967
(dp1968
g74
(dp1969
g101
g102
ssg83
g1958
sg76
(lp1970
S':'
asbag69
(g90
g71
NtRp1971
(dp1972
g74
(dp1973
sg83
g1958
sg76
(lp1974
g69
(g70
g71
NtRp1975
(dp1976
g74
(dp1977
g82
I5
ssg83
g1971
sg76
(lp1978
S'html'
p1979
asbasbasbag69
(g85
g71
NtRp1980
(dp1981
g74
(dp1982
sg83
g79
sg76
(lp1983
g69
(g90
g71
NtRp1984
(dp1985
g74
(dp1986
g94
g95
ssg83
g1980
sg76
(lp1987
S'folder'
p1988
asbag69
(g90
g71
NtRp1989
(dp1990
g74
(dp1991
g101
g102
ssg83
g1980
sg76
(lp1992
S':'
asbag69
(g90
g71
NtRp1993
(dp1994
g74
(dp1995
sg83
g1980
sg76
(lp1996
g69
(g70
g71
NtRp1997
(dp1998
g74
(dp1999
g82
I5
ssg83
g1993
sg76
(lp2000
S'/home/michael/Projects/Scrum-Web-Application-by-web2py/web2py/applications/Scrum_Web_Application/'
p2001
asbasbasbag69
(g85
g71
NtRp2002
(dp2003
g74
(dp2004
sg83
g79
sg76
(lp2005
g69
(g90
g71
NtRp2006
(dp2007
g74
(dp2008
g94
g95
ssg83
g2002
sg76
(lp2009
S'function'
p2010
asbag69
(g90
g71
NtRp2011
(dp2012
g74
(dp2013
g101
g102
ssg83
g2002
sg76
(lp2014
S':'
asbag69
(g90
g71
NtRp2015
(dp2016
g74
(dp2017
sg83
g2002
sg76
(lp2018
g69
(g70
g71
NtRp2019
(dp2020
g74
(dp2021
g82
I5
ssg83
g2015
sg76
(lp2022
S'edit'
p2023
asbasbasbag69
(g85
g71
NtRp2024
(dp2025
g74
(dp2026
sg83
g79
sg76
(lp2027
g69
(g90
g71
NtRp2028
(dp2029
g74
(dp2030
g94
g95
ssg83
g2024
sg76
(lp2031
S'get_vars'
p2032
asbag69
(g90
g71
NtRp2033
(dp2034
g74
(dp2035
g101
g102
ssg83
g2024
sg76
(lp2036
S':'
asbag69
(g90
g71
NtRp2037
(dp2038
g74
(dp2039
sg83
g2024
sg76
(lp2040
g69
(g70
g71
NtRp2041
(dp2042
g74
(dp2043
g82
I5
ssg83
g2037
sg76
(lp2044
g69
(g78
g71
NtRp2045
(dp2046
g74
(dp2047
g82
I4
ssg83
Nsg76
(lp2048
sbasbasbasbag69
(g85
g71
NtRp2049
(dp2050
g74
(dp2051
sg83
g79
sg76
(lp2052
g69
(g90
g71
NtRp2053
(dp2054
g74
(dp2055
g94
g95
ssg83
g2049
sg76
(lp2056
S'global_settings'
p2057
asbag69
(g90
g71
NtRp2058
(dp2059
g74
(dp2060
g101
g102
ssg83
g2049
sg76
(lp2061
S':'
asbag69
(g90
g71
NtRp2062
(dp2063
g74
(dp2064
sg83
g2049
sg76
(lp2065
g69
(g70
g71
NtRp2066
(dp2067
g74
(dp2068
g82
I5
ssg83
g2062
sg76
(lp2069
g69
(g78
g71
NtRp2070
(dp2071
g74
(dp2072
g82
I4
ssg83
Nsg76
(lp2073
g69
(g85
g71
NtRp2074
(dp2075
g74
(dp2076
sg83
g2070
sg76
(lp2077
g69
(g90
g71
NtRp2078
(dp2079
g74
(dp2080
g94
g95
ssg83
g2074
sg76
(lp2081
g1043
asbag69
(g90
g71
NtRp2082
(dp2083
g74
(dp2084
g101
g102
ssg83
g2074
sg76
(lp2085
S':'
asbag69
(g90
g71
NtRp2086
(dp2087
g74
(dp2088
sg83
g2074
sg76
(lp2089
g69
(g70
g71
NtRp2090
(dp2091
g74
(dp2092
g82
I4
ssg83
g2086
sg76
(lp2093
S"set(['/home/michael/Projects/Scrum-Web-Application-by-web2py/web2py/applications/admin/', '/home/michael/Projects/Scrum-Web-Application-by-web2py/web2py/applications/Scrum_Web_Application/', '/home/michael/Projects/Scrum-Web-Application-by-web2py/web2py/applications/welcome/'])"
p2094
asbasbasbag69
(g85
g71
NtRp2095
(dp2096
g74
(dp2097
sg83
g2070
sg76
(lp2098
g69
(g90
g71
NtRp2099
(dp2100
g74
(dp2101
g94
g95
ssg83
g2095
sg76
(lp2102
g1065
asbag69
(g90
g71
NtRp2103
(dp2104
g74
(dp2105
g101
g102
ssg83
g2095
sg76
(lp2106
S':'
asbag69
(g90
g71
NtRp2107
(dp2108
g74
(dp2109
sg83
g2095
sg76
(lp2110
g69
(g70
g71
NtRp2111
(dp2112
g74
(dp2113
g82
I4
ssg83
g2107
sg76
(lp2114
g1078
asbasbasbag69
(g85
g71
NtRp2115
(dp2116
g74
(dp2117
sg83
g2070
sg76
(lp2118
g69
(g90
g71
NtRp2119
(dp2120
g74
(dp2121
g94
g95
ssg83
g2115
sg76
(lp2122
g1087
asbag69
(g90
g71
NtRp2123
(dp2124
g74
(dp2125
g101
g102
ssg83
g2115
sg76
(lp2126
S':'
asbag69
(g90
g71
NtRp2127
(dp2128
g74
(dp2129
sg83
g2115
sg76
(lp2130
g69
(g70
g71
NtRp2131
(dp2132
g74
(dp2133
g82
I4
ssg83
g2127
sg76
(lp2134
g69
(g78
g71
NtRp2135
(dp2136
g74
(dp2137
g82
I3
ssg83
Nsg76
(lp2138
sbasbasbasbag69
(g85
g71
NtRp2139
(dp2140
g74
(dp2141
sg83
g2070
sg76
(lp2142
g69
(g90
g71
NtRp2143
(dp2144
g74
(dp2145
g94
g95
ssg83
g2139
sg76
(lp2146
g1112
asbag69
(g90
g71
NtRp2147
(dp2148
g74
(dp2149
g101
g102
ssg83
g2139
sg76
(lp2150
S':'
asbag69
(g90
g71
NtRp2151
(dp2152
g74
(dp2153
sg83
g2139
sg76
(lp2154
g69
(g70
g71
NtRp2155
(dp2156
g74
(dp2157
g82
I4
ssg83
g2151
sg76
(lp2158
S"<Values at 0x21fe7e8: {'verbose': False, 'ip': '127.0.0.1', 'shutdown_timeout': 5, 'taskbar': False, 'nocron': False, 'pid_filename': 'httpserver.pid', 'maxthreads': None, 'softcron': False, 'server_name': 'Lotus', 'bpython': False, 'nogui': False, 'port': 8000, 'extcron': False, 'debuglevel': 30, 'test': None, 'folder': '/home/michael/Projects/Scrum-Web-Application-by-web2py/web2py', 'config': '', 'import_models': False, 'winservice': '', 'shell': None, 'run': '', 'log_filename': 'httpserver.log', 'args': [''], 'socket_timeout': 5, 'ssl_ca_certificate': None, 'scheduler': None, 'profiler_filename': None, 'ssl_private_key': '', 'password': 'merlin', 'request_queue_size': 5, 'ssl_certificate': '', 'cronjob': False, 'numthreads': None, 'quiet': False, 'interfaces': None, 'minthreads': None, 'timeout': 10, 'plain': False, 'nobanner': False}>"
p2159
asbasbasbag69
(g85
g71
NtRp2160
(dp2161
g74
(dp2162
sg83
g2070
sg76
(lp2163
g69
(g90
g71
NtRp2164
(dp2165
g74
(dp2166
g94
g95
ssg83
g2160
sg76
(lp2167
g1134
asbag69
(g90
g71
NtRp2168
(dp2169
g74
(dp2170
g101
g102
ssg83
g2160
sg76
(lp2171
S':'
asbag69
(g90
g71
NtRp2172
(dp2173
g74
(dp2174
sg83
g2160
sg76
(lp2175
g69
(g70
g71
NtRp2176
(dp2177
g74
(dp2178
g82
I4
ssg83
g2172
sg76
(lp2179
S'set([])'
p2180
asbasbasbag69
(g85
g71
NtRp2181
(dp2182
g74
(dp2183
sg83
g2070
sg76
(lp2184
g69
(g90
g71
NtRp2185
(dp2186
g74
(dp2187
g94
g95
ssg83
g2181
sg76
(lp2188
g1156
asbag69
(g90
g71
NtRp2189
(dp2190
g74
(dp2191
g101
g102
ssg83
g2181
sg76
(lp2192
S':'
asbag69
(g90
g71
NtRp2193
(dp2194
g74
(dp2195
sg83
g2181
sg76
(lp2196
g69
(g70
g71
NtRp2197
(dp2198
g74
(dp2199
g82
I4
ssg83
g2193
sg76
(lp2200
g112
asbasbasbag69
(g85
g71
NtRp2201
(dp2202
g74
(dp2203
sg83
g2070
sg76
(lp2204
g69
(g90
g71
NtRp2205
(dp2206
g74
(dp2207
g94
g95
ssg83
g2201
sg76
(lp2208
g1177
asbag69
(g90
g71
NtRp2209
(dp2210
g74
(dp2211
g101
g102
ssg83
g2201
sg76
(lp2212
S':'
asbag69
(g90
g71
NtRp2213
(dp2214
g74
(dp2215
sg83
g2201
sg76
(lp2216
g69
(g70
g71
NtRp2217
(dp2218
g74
(dp2219
g82
I4
ssg83
g2213
sg76
(lp2220
g1190
asbasbasbag69
(g85
g71
NtRp2221
(dp2222
g74
(dp2223
sg83
g2070
sg76
(lp2224
g69
(g90
g71
NtRp2225
(dp2226
g74
(dp2227
g94
g95
ssg83
g2221
sg76
(lp2228
g1375
asbag69
(g90
g71
NtRp2229
(dp2230
g74
(dp2231
g101
g102
ssg83
g2221
sg76
(lp2232
S':'
asbag69
(g90
g71
NtRp2233
(dp2234
g74
(dp2235
sg83
g2221
sg76
(lp2236
g69
(g70
g71
NtRp2237
(dp2238
g74
(dp2239
g82
I4
ssg83
g2233
sg76
(lp2240
g112
asbasbasbag69
(g85
g71
NtRp2241
(dp2242
g74
(dp2243
sg83
g2070
sg76
(lp2244
g69
(g90
g71
NtRp2245
(dp2246
g74
(dp2247
g94
g95
ssg83
g2241
sg76
(lp2248
g1396
asbag69
(g90
g71
NtRp2249
(dp2250
g74
(dp2251
g101
g102
ssg83
g2241
sg76
(lp2252
S':'
asbag69
(g90
g71
NtRp2253
(dp2254
g74
(dp2255
sg83
g2241
sg76
(lp2256
g69
(g70
g71
NtRp2257
(dp2258
g74
(dp2259
g82
I4
ssg83
g2253
sg76
(lp2260
g112
asbasbasbag69
(g85
g71
NtRp2261
(dp2262
g74
(dp2263
sg83
g2070
sg76
(lp2264
g69
(g90
g71
NtRp2265
(dp2266
g74
(dp2267
g94
g95
ssg83
g2261
sg76
(lp2268
g1634
asbag69
(g90
g71
NtRp2269
(dp2270
g74
(dp2271
g101
g102
ssg83
g2261
sg76
(lp2272
S':'
asbag69
(g90
g71
NtRp2273
(dp2274
g74
(dp2275
sg83
g2261
sg76
(lp2276
g69
(g70
g71
NtRp2277
(dp2278
g74
(dp2279
g82
I4
ssg83
g2273
sg76
(lp2280
g1647
asbasbasbag69
(g85
g71
NtRp2281
(dp2282
g74
(dp2283
sg83
g2070
sg76
(lp2284
g69
(g90
g71
NtRp2285
(dp2286
g74
(dp2287
g94
g95
ssg83
g2281
sg76
(lp2288
g1677
asbag69
(g90
g71
NtRp2289
(dp2290
g74
(dp2291
g101
g102
ssg83
g2281
sg76
(lp2292
S':'
asbag69
(g90
g71
NtRp2293
(dp2294
g74
(dp2295
sg83
g2281
sg76
(lp2296
g69
(g70
g71
NtRp2297
(dp2298
g74
(dp2299
g82
I4
ssg83
g2293
sg76
(lp2300
g69
(g78
g71
NtRp2301
(dp2302
g74
(dp2303
g82
I3
ssg83
Nsg76
(lp2304
g69
(g85
g71
NtRp2305
(dp2306
g74
(dp2307
sg83
g2301
sg76
(lp2308
g69
(g90
g71
NtRp2309
(dp2310
g74
(dp2311
sg83
g2305
sg76
(lp2312
g69
(g70
g71
NtRp2313
(dp2314
g74
(dp2315
g82
I3
ssg83
g2309
sg76
(lp2316
S'1'
asbasbasbag69
(g85
g71
NtRp2317
(dp2318
g74
(dp2319
sg83
g2301
sg76
(lp2320
g69
(g90
g71
NtRp2321
(dp2322
g74
(dp2323
sg83
g2317
sg76
(lp2324
g69
(g70
g71
NtRp2325
(dp2326
g74
(dp2327
g82
I3
ssg83
g2321
sg76
(lp2328
S'99'
p2329
asbasbasbag69
(g85
g71
NtRp2330
(dp2331
g74
(dp2332
sg83
g2301
sg76
(lp2333
g69
(g90
g71
NtRp2334
(dp2335
g74
(dp2336
sg83
g2330
sg76
(lp2337
g69
(g70
g71
NtRp2338
(dp2339
g74
(dp2340
g82
I3
ssg83
g2334
sg76
(lp2341
S'7'
asbasbasbag69
(g85
g71
NtRp2342
(dp2343
g74
(dp2344
sg83
g2301
sg76
(lp2345
g69
(g90
g71
NtRp2346
(dp2347
g74
(dp2348
sg83
g2342
sg76
(lp2349
g69
(g70
g71
NtRp2350
(dp2351
g74
(dp2352
g82
I3
ssg83
g2346
sg76
(lp2353
S'datetime.datetime(2012, 3, 4, 22, 12, 8)'
p2354
asbasbasbag69
(g85
g71
NtRp2355
(dp2356
g74
(dp2357
sg83
g2301
sg76
(lp2358
g69
(g90
g71
NtRp2359
(dp2360
g74
(dp2361
sg83
g2355
sg76
(lp2362
g69
(g70
g71
NtRp2363
(dp2364
g74
(dp2365
g82
I3
ssg83
g2359
sg76
(lp2366
g1756
asbasbasbasbasbasbasbasbasbasbasbag69
(g85
g71
NtRp2367
(dp2368
g74
(dp2369
sg83
g79
sg76
(lp2370
g69
(g90
g71
NtRp2371
(dp2372
g74
(dp2373
g94
g95
ssg83
g2367
sg76
(lp2374
S'is_https'
p2375
asbag69
(g90
g71
NtRp2376
(dp2377
g74
(dp2378
g101
g102
ssg83
g2367
sg76
(lp2379
S':'
asbag69
(g90
g71
NtRp2380
(dp2381
g74
(dp2382
sg83
g2367
sg76
(lp2383
g69
(g70
g71
NtRp2384
(dp2385
g74
(dp2386
g82
I5
ssg83
g2380
sg76
(lp2387
g112
asbasbasbag69
(g85
g71
NtRp2388
(dp2389
g74
(dp2390
sg83
g79
sg76
(lp2391
g69
(g90
g71
NtRp2392
(dp2393
g74
(dp2394
g94
g95
ssg83
g2388
sg76
(lp2395
S'is_local'
p2396
asbag69
(g90
g71
NtRp2397
(dp2398
g74
(dp2399
g101
g102
ssg83
g2388
sg76
(lp2400
S':'
asbag69
(g90
g71
NtRp2401
(dp2402
g74
(dp2403
sg83
g2388
sg76
(lp2404
g69
(g70
g71
NtRp2405
(dp2406
g74
(dp2407
g82
I5
ssg83
g2401
sg76
(lp2408
g1865
asbasbasbag69
(g85
g71
NtRp2409
(dp2410
g74
(dp2411
sg83
g79
sg76
(lp2412
g69
(g90
g71
NtRp2413
(dp2414
g74
(dp2415
g94
g95
ssg83
g2409
sg76
(lp2416
S'is_restful'
p2417
asbag69
(g90
g71
NtRp2418
(dp2419
g74
(dp2420
g101
g102
ssg83
g2409
sg76
(lp2421
S':'
asbag69
(g90
g71
NtRp2422
(dp2423
g74
(dp2424
sg83
g2409
sg76
(lp2425
g69
(g70
g71
NtRp2426
(dp2427
g74
(dp2428
g82
I5
ssg83
g2422
sg76
(lp2429
g112
asbasbasbag69
(g85
g71
NtRp2430
(dp2431
g74
(dp2432
sg83
g79
sg76
(lp2433
g69
(g90
g71
NtRp2434
(dp2435
g74
(dp2436
g94
g95
ssg83
g2430
sg76
(lp2437
S'now'
p2438
asbag69
(g90
g71
NtRp2439
(dp2440
g74
(dp2441
g101
g102
ssg83
g2430
sg76
(lp2442
S':'
asbag69
(g90
g71
NtRp2443
(dp2444
g74
(dp2445
sg83
g2430
sg76
(lp2446
g69
(g70
g71
NtRp2447
(dp2448
g74
(dp2449
g82
I5
ssg83
g2443
sg76
(lp2450
S'datetime.datetime(2012, 6, 27, 15, 57, 34, 16943)'
p2451
asbasbasbag69
(g85
g71
NtRp2452
(dp2453
g74
(dp2454
sg83
g79
sg76
(lp2455
g69
(g90
g71
NtRp2456
(dp2457
g74
(dp2458
g94
g95
ssg83
g2452
sg76
(lp2459
S'post_vars'
p2460
asbag69
(g90
g71
NtRp2461
(dp2462
g74
(dp2463
g101
g102
ssg83
g2452
sg76
(lp2464
S':'
asbag69
(g90
g71
NtRp2465
(dp2466
g74
(dp2467
sg83
g2452
sg76
(lp2468
g69
(g70
g71
NtRp2469
(dp2470
g74
(dp2471
g82
I5
ssg83
g2465
sg76
(lp2472
g69
(g78
g71
NtRp2473
(dp2474
g74
(dp2475
g82
I4
ssg83
Nsg76
(lp2476
sbasbasbasbag69
(g85
g71
NtRp2477
(dp2478
g74
(dp2479
sg83
g79
sg76
(lp2480
g69
(g90
g71
NtRp2481
(dp2482
g74
(dp2483
g94
g95
ssg83
g2477
sg76
(lp2484
S'raw_args'
p2485
asbag69
(g90
g71
NtRp2486
(dp2487
g74
(dp2488
g101
g102
ssg83
g2477
sg76
(lp2489
S':'
asbag69
(g90
g71
NtRp2490
(dp2491
g74
(dp2492
sg83
g2477
sg76
(lp2493
g69
(g70
g71
NtRp2494
(dp2495
g74
(dp2496
g82
I5
ssg83
g2490
sg76
(lp2497
S'1'
asbasbasbag69
(g85
g71
NtRp2498
(dp2499
g74
(dp2500
sg83
g79
sg76
(lp2501
g69
(g90
g71
NtRp2502
(dp2503
g74
(dp2504
g94
g95
ssg83
g2498
sg76
(lp2505
S'url'
p2506
asbag69
(g90
g71
NtRp2507
(dp2508
g74
(dp2509
g101
g102
ssg83
g2498
sg76
(lp2510
S':'
asbag69
(g90
g71
NtRp2511
(dp2512
g74
(dp2513
sg83
g2498
sg76
(lp2514
g69
(g70
g71
NtRp2515
(dp2516
g74
(dp2517
g82
I5
ssg83
g2511
sg76
(lp2518
S'/Scrum_Web_Application/product/edit/1'
p2519
asbasbasbag69
(g85
g71
NtRp2520
(dp2521
g74
(dp2522
sg83
g79
sg76
(lp2523
g69
(g90
g71
NtRp2524
(dp2525
g74
(dp2526
g94
g95
ssg83
g2520
sg76
(lp2527
S'utcnow'
p2528
asbag69
(g90
g71
NtRp2529
(dp2530
g74
(dp2531
g101
g102
ssg83
g2520
sg76
(lp2532
S':'
asbag69
(g90
g71
NtRp2533
(dp2534
g74
(dp2535
sg83
g2520
sg76
(lp2536
g69
(g70
g71
NtRp2537
(dp2538
g74
(dp2539
g82
I5
ssg83
g2533
sg76
(lp2540
S'datetime.datetime(2012, 6, 27, 7, 57, 34, 16979)'
p2541
asbasbasbag69
(g85
g71
NtRp2542
(dp2543
g74
(dp2544
sg83
g79
sg76
(lp2545
g69
(g90
g71
NtRp2546
(dp2547
g74
(dp2548
g94
g95
ssg83
g2542
sg76
(lp2549
S'uuid'
p2550
asbag69
(g90
g71
NtRp2551
(dp2552
g74
(dp2553
g101
g102
ssg83
g2542
sg76
(lp2554
S':'
asbag69
(g90
g71
NtRp2555
(dp2556
g74
(dp2557
sg83
g2542
sg76
(lp2558
g69
(g70
g71
NtRp2559
(dp2560
g74
(dp2561
g82
I5
ssg83
g2555
sg76
(lp2562
S'Scrum_Web_Application/127.0.0.1.2012-06-27.15-57-34.6fe2e962-d8ac-47e0-8b7e-249e99369ac0'
p2563
asbasbasbag69
(g85
g71
NtRp2564
(dp2565
g74
(dp2566
sg83
g79
sg76
(lp2567
g69
(g90
g71
NtRp2568
(dp2569
g74
(dp2570
g94
g95
ssg83
g2564
sg76
(lp2571
S'vars'
p2572
asbag69
(g90
g71
NtRp2573
(dp2574
g74
(dp2575
g101
g102
ssg83
g2564
sg76
(lp2576
S':'
asbag69
(g90
g71
NtRp2577
(dp2578
g74
(dp2579
sg83
g2564
sg76
(lp2580
g69
(g70
g71
NtRp2581
(dp2582
g74
(dp2583
g82
I5
ssg83
g2577
sg76
(lp2584
g69
(g78
g71
NtRp2585
(dp2586
g74
(dp2587
g82
I4
ssg83
Nsg76
(lp2588
sbasbasbasbag69
(g85
g71
NtRp2589
(dp2590
g74
(dp2591
sg83
g79
sg76
(lp2592
g69
(g90
g71
NtRp2593
(dp2594
g74
(dp2595
g94
g95
ssg83
g2589
sg76
(lp2596
S'wsgi'
p2597
asbag69
(g90
g71
NtRp2598
(dp2599
g74
(dp2600
g101
g102
ssg83
g2589
sg76
(lp2601
S':'
asbag69
(g90
g71
NtRp2602
(dp2603
g74
(dp2604
sg83
g2589
sg76
(lp2605
g69
(g70
g71
NtRp2606
(dp2607
g74
(dp2608
g82
I5
ssg83
g2602
sg76
(lp2609
g69
(g78
g71
NtRp2610
(dp2611
g74
(dp2612
g82
I4
ssg83
Nsg76
(lp2613
g69
(g85
g71
NtRp2614
(dp2615
g74
(dp2616
sg83
g2610
sg76
(lp2617
g69
(g90
g71
NtRp2618
(dp2619
g74
(dp2620
g94
g95
ssg83
g2614
sg76
(lp2621
S'environ'
p2622
asbag69
(g90
g71
NtRp2623
(dp2624
g74
(dp2625
g101
g102
ssg83
g2614
sg76
(lp2626
S':'
asbag69
(g90
g71
NtRp2627
(dp2628
g74
(dp2629
sg83
g2614
sg76
(lp2630
g69
(g70
g71
NtRp2631
(dp2632
g74
(dp2633
g82
I4
ssg83
g2627
sg76
(lp2634
g69
(g78
g71
NtRp2635
(dp2636
g74
(dp2637
g82
I3
ssg83
Nsg76
(lp2638
g69
(g85
g71
NtRp2639
(dp2640
g74
(dp2641
sg83
g2635
sg76
(lp2642
g69
(g90
g71
NtRp2643
(dp2644
g74
(dp2645
g94
g95
ssg83
g2639
sg76
(lp2646
S'HTTP_ACCEPT'
p2647
asbag69
(g90
g71
NtRp2648
(dp2649
g74
(dp2650
g101
g102
ssg83
g2639
sg76
(lp2651
S':'
asbag69
(g90
g71
NtRp2652
(dp2653
g74
(dp2654
sg83
g2639
sg76
(lp2655
g69
(g70
g71
NtRp2656
(dp2657
g74
(dp2658
g82
I3
ssg83
g2652
sg76
(lp2659
g1212
asbasbasbag69
(g85
g71
NtRp2660
(dp2661
g74
(dp2662
sg83
g2635
sg76
(lp2663
g69
(g90
g71
NtRp2664
(dp2665
g74
(dp2666
g94
g95
ssg83
g2660
sg76
(lp2667
S'HTTP_ACCEPT_CHARSET'
p2668
asbag69
(g90
g71
NtRp2669
(dp2670
g74
(dp2671
g101
g102
ssg83
g2660
sg76
(lp2672
S':'
asbag69
(g90
g71
NtRp2673
(dp2674
g74
(dp2675
sg83
g2660
sg76
(lp2676
g69
(g70
g71
NtRp2677
(dp2678
g74
(dp2679
g82
I3
ssg83
g2673
sg76
(lp2680
g1234
asbasbasbag69
(g85
g71
NtRp2681
(dp2682
g74
(dp2683
sg83
g2635
sg76
(lp2684
g69
(g90
g71
NtRp2685
(dp2686
g74
(dp2687
g94
g95
ssg83
g2681
sg76
(lp2688
S'HTTP_ACCEPT_ENCODING'
p2689
asbag69
(g90
g71
NtRp2690
(dp2691
g74
(dp2692
g101
g102
ssg83
g2681
sg76
(lp2693
S':'
asbag69
(g90
g71
NtRp2694
(dp2695
g74
(dp2696
sg83
g2681
sg76
(lp2697
g69
(g70
g71
NtRp2698
(dp2699
g74
(dp2700
g82
I3
ssg83
g2694
sg76
(lp2701
g1256
asbasbasbag69
(g85
g71
NtRp2702
(dp2703
g74
(dp2704
sg83
g2635
sg76
(lp2705
g69
(g90
g71
NtRp2706
(dp2707
g74
(dp2708
g94
g95
ssg83
g2702
sg76
(lp2709
S'HTTP_ACCEPT_LANGUAGE'
p2710
asbag69
(g90
g71
NtRp2711
(dp2712
g74
(dp2713
g101
g102
ssg83
g2702
sg76
(lp2714
S':'
asbag69
(g90
g71
NtRp2715
(dp2716
g74
(dp2717
sg83
g2702
sg76
(lp2718
g69
(g70
g71
NtRp2719
(dp2720
g74
(dp2721
g82
I3
ssg83
g2715
sg76
(lp2722
g1278
asbasbasbag69
(g85
g71
NtRp2723
(dp2724
g74
(dp2725
sg83
g2635
sg76
(lp2726
g69
(g90
g71
NtRp2727
(dp2728
g74
(dp2729
g94
g95
ssg83
g2723
sg76
(lp2730
S'HTTP_CONNECTION'
p2731
asbag69
(g90
g71
NtRp2732
(dp2733
g74
(dp2734
g101
g102
ssg83
g2723
sg76
(lp2735
S':'
asbag69
(g90
g71
NtRp2736
(dp2737
g74
(dp2738
sg83
g2723
sg76
(lp2739
g69
(g70
g71
NtRp2740
(dp2741
g74
(dp2742
g82
I3
ssg83
g2736
sg76
(lp2743
g1300
asbasbasbag69
(g85
g71
NtRp2744
(dp2745
g74
(dp2746
sg83
g2635
sg76
(lp2747
g69
(g90
g71
NtRp2748
(dp2749
g74
(dp2750
g94
g95
ssg83
g2744
sg76
(lp2751
S'HTTP_COOKIE'
p2752
asbag69
(g90
g71
NtRp2753
(dp2754
g74
(dp2755
g101
g102
ssg83
g2744
sg76
(lp2756
S':'
asbag69
(g90
g71
NtRp2757
(dp2758
g74
(dp2759
sg83
g2744
sg76
(lp2760
g69
(g70
g71
NtRp2761
(dp2762
g74
(dp2763
g82
I3
ssg83
g2757
sg76
(lp2764
g1322
asbasbasbag69
(g85
g71
NtRp2765
(dp2766
g74
(dp2767
sg83
g2635
sg76
(lp2768
g69
(g90
g71
NtRp2769
(dp2770
g74
(dp2771
g94
g95
ssg83
g2765
sg76
(lp2772
S'HTTP_HOST'
p2773
asbag69
(g90
g71
NtRp2774
(dp2775
g74
(dp2776
g101
g102
ssg83
g2765
sg76
(lp2777
S':'
asbag69
(g90
g71
NtRp2778
(dp2779
g74
(dp2780
sg83
g2765
sg76
(lp2781
g69
(g70
g71
NtRp2782
(dp2783
g74
(dp2784
g82
I3
ssg83
g2778
sg76
(lp2785
g1344
asbasbasbag69
(g85
g71
NtRp2786
(dp2787
g74
(dp2788
sg83
g2635
sg76
(lp2789
g69
(g90
g71
NtRp2790
(dp2791
g74
(dp2792
g94
g95
ssg83
g2786
sg76
(lp2793
S'HTTP_USER_AGENT'
p2794
asbag69
(g90
g71
NtRp2795
(dp2796
g74
(dp2797
g101
g102
ssg83
g2786
sg76
(lp2798
S':'
asbag69
(g90
g71
NtRp2799
(dp2800
g74
(dp2801
sg83
g2786
sg76
(lp2802
g69
(g70
g71
NtRp2803
(dp2804
g74
(dp2805
g82
I3
ssg83
g2799
sg76
(lp2806
g1366
asbasbasbag69
(g85
g71
NtRp2807
(dp2808
g74
(dp2809
sg83
g2635
sg76
(lp2810
g69
(g90
g71
NtRp2811
(dp2812
g74
(dp2813
g94
g95
ssg83
g2807
sg76
(lp2814
S'PATH_INFO'
p2815
asbag69
(g90
g71
NtRp2816
(dp2817
g74
(dp2818
g101
g102
ssg83
g2807
sg76
(lp2819
S':'
asbag69
(g90
g71
NtRp2820
(dp2821
g74
(dp2822
sg83
g2807
sg76
(lp2823
g69
(g70
g71
NtRp2824
(dp2825
g74
(dp2826
g82
I3
ssg83
g2820
sg76
(lp2827
g1430
asbasbasbag69
(g85
g71
NtRp2828
(dp2829
g74
(dp2830
sg83
g2635
sg76
(lp2831
g69
(g90
g71
NtRp2832
(dp2833
g74
(dp2834
g94
g95
ssg83
g2828
sg76
(lp2835
S'QUERY_STRING'
p2836
asbag69
(g90
g71
NtRp2837
(dp2838
g74
(dp2839
g101
g102
ssg83
g2828
sg76
(lp2840
S':'
asbag69
(g90
g71
NtRp2841
(dp2842
g74
(dp2843
sg83
g2828
sg76
(lp2844
g69
(g70
g71
NtRp2845
(dp2846
g74
(dp2847
g82
I3
ssg83
g2841
sg76
(lp2848
S''
asbasbasbag69
(g85
g71
NtRp2849
(dp2850
g74
(dp2851
sg83
g2635
sg76
(lp2852
g69
(g90
g71
NtRp2853
(dp2854
g74
(dp2855
g94
g95
ssg83
g2849
sg76
(lp2856
S'REMOTE_ADDR'
p2857
asbag69
(g90
g71
NtRp2858
(dp2859
g74
(dp2860
g101
g102
ssg83
g2849
sg76
(lp2861
S':'
asbag69
(g90
g71
NtRp2862
(dp2863
g74
(dp2864
sg83
g2849
sg76
(lp2865
g69
(g70
g71
NtRp2866
(dp2867
g74
(dp2868
g82
I3
ssg83
g2862
sg76
(lp2869
g214
asbasbasbag69
(g85
g71
NtRp2870
(dp2871
g74
(dp2872
sg83
g2635
sg76
(lp2873
g69
(g90
g71
NtRp2874
(dp2875
g74
(dp2876
g94
g95
ssg83
g2870
sg76
(lp2877
S'REMOTE_PORT'
p2878
asbag69
(g90
g71
NtRp2879
(dp2880
g74
(dp2881
g101
g102
ssg83
g2870
sg76
(lp2882
S':'
asbag69
(g90
g71
NtRp2883
(dp2884
g74
(dp2885
sg83
g2870
sg76
(lp2886
g69
(g70
g71
NtRp2887
(dp2888
g74
(dp2889
g82
I3
ssg83
g2883
sg76
(lp2890
g1494
asbasbasbag69
(g85
g71
NtRp2891
(dp2892
g74
(dp2893
sg83
g2635
sg76
(lp2894
g69
(g90
g71
NtRp2895
(dp2896
g74
(dp2897
g94
g95
ssg83
g2891
sg76
(lp2898
S'REQUEST_METHOD'
p2899
asbag69
(g90
g71
NtRp2900
(dp2901
g74
(dp2902
g101
g102
ssg83
g2891
sg76
(lp2903
S':'
asbag69
(g90
g71
NtRp2904
(dp2905
g74
(dp2906
sg83
g2891
sg76
(lp2907
g69
(g70
g71
NtRp2908
(dp2909
g74
(dp2910
g82
I3
ssg83
g2904
sg76
(lp2911
g1516
asbasbasbag69
(g85
g71
NtRp2912
(dp2913
g74
(dp2914
sg83
g2635
sg76
(lp2915
g69
(g90
g71
NtRp2916
(dp2917
g74
(dp2918
g94
g95
ssg83
g2912
sg76
(lp2919
S'SCRIPT_NAME'
p2920
asbag69
(g90
g71
NtRp2921
(dp2922
g74
(dp2923
g101
g102
ssg83
g2912
sg76
(lp2924
S':'
asbag69
(g90
g71
NtRp2925
(dp2926
g74
(dp2927
sg83
g2912
sg76
(lp2928
g69
(g70
g71
NtRp2929
(dp2930
g74
(dp2931
g82
I3
ssg83
g2925
sg76
(lp2932
S''
asbasbasbag69
(g85
g71
NtRp2933
(dp2934
g74
(dp2935
sg83
g2635
sg76
(lp2936
g69
(g90
g71
NtRp2937
(dp2938
g74
(dp2939
g94
g95
ssg83
g2933
sg76
(lp2940
S'SERVER_NAME'
p2941
asbag69
(g90
g71
NtRp2942
(dp2943
g74
(dp2944
g101
g102
ssg83
g2933
sg76
(lp2945
S':'
asbag69
(g90
g71
NtRp2946
(dp2947
g74
(dp2948
sg83
g2933
sg76
(lp2949
g69
(g70
g71
NtRp2950
(dp2951
g74
(dp2952
g82
I3
ssg83
g2946
sg76
(lp2953
g1559
asbasbasbag69
(g85
g71
NtRp2954
(dp2955
g74
(dp2956
sg83
g2635
sg76
(lp2957
g69
(g90
g71
NtRp2958
(dp2959
g74
(dp2960
g94
g95
ssg83
g2954
sg76
(lp2961
S'SERVER_PORT'
p2962
asbag69
(g90
g71
NtRp2963
(dp2964
g74
(dp2965
g101
g102
ssg83
g2954
sg76
(lp2966
S':'
asbag69
(g90
g71
NtRp2967
(dp2968
g74
(dp2969
sg83
g2954
sg76
(lp2970
g69
(g70
g71
NtRp2971
(dp2972
g74
(dp2973
g82
I3
ssg83
g2967
sg76
(lp2974
g1581
asbasbasbag69
(g85
g71
NtRp2975
(dp2976
g74
(dp2977
sg83
g2635
sg76
(lp2978
g69
(g90
g71
NtRp2979
(dp2980
g74
(dp2981
g94
g95
ssg83
g2975
sg76
(lp2982
S'SERVER_PROTOCOL'
p2983
asbag69
(g90
g71
NtRp2984
(dp2985
g74
(dp2986
g101
g102
ssg83
g2975
sg76
(lp2987
S':'
asbag69
(g90
g71
NtRp2988
(dp2989
g74
(dp2990
sg83
g2975
sg76
(lp2991
g69
(g70
g71
NtRp2992
(dp2993
g74
(dp2994
g82
I3
ssg83
g2988
sg76
(lp2995
g1603
asbasbasbag69
(g85
g71
NtRp2996
(dp2997
g74
(dp2998
sg83
g2635
sg76
(lp2999
g69
(g90
g71
NtRp3000
(dp3001
g74
(dp3002
g94
g95
ssg83
g2996
sg76
(lp3003
S'SERVER_SOFTWARE'
p3004
asbag69
(g90
g71
NtRp3005
(dp3006
g74
(dp3007
g101
g102
ssg83
g2996
sg76
(lp3008
S':'
asbag69
(g90
g71
NtRp3009
(dp3010
g74
(dp3011
sg83
g2996
sg76
(lp3012
g69
(g70
g71
NtRp3013
(dp3014
g74
(dp3015
g82
I3
ssg83
g3009
sg76
(lp3016
g1625
asbasbasbag69
(g85
g71
NtRp3017
(dp3018
g74
(dp3019
sg83
g2635
sg76
(lp3020
g69
(g90
g71
NtRp3021
(dp3022
g74
(dp3023
g94
g95
ssg83
g3017
sg76
(lp3024
S'wsgi.errors'
p3025
asbag69
(g90
g71
NtRp3026
(dp3027
g74
(dp3028
g101
g102
ssg83
g3017
sg76
(lp3029
S':'
asbag69
(g90
g71
NtRp3030
(dp3031
g74
(dp3032
sg83
g3017
sg76
(lp3033
g69
(g70
g71
NtRp3034
(dp3035
g74
(dp3036
g82
I3
ssg83
g3030
sg76
(lp3037
S"<open file '<stderr>', mode 'w' at 0x7fb71aec9270>"
p3038
asbasbasbag69
(g85
g71
NtRp3039
(dp3040
g74
(dp3041
sg83
g2635
sg76
(lp3042
g69
(g90
g71
NtRp3043
(dp3044
g74
(dp3045
g94
g95
ssg83
g3039
sg76
(lp3046
S'wsgi.file_wrapper'
p3047
asbag69
(g90
g71
NtRp3048
(dp3049
g74
(dp3050
g101
g102
ssg83
g3039
sg76
(lp3051
S':'
asbag69
(g90
g71
NtRp3052
(dp3053
g74
(dp3054
sg83
g3039
sg76
(lp3055
g69
(g70
g71
NtRp3056
(dp3057
g74
(dp3058
g82
I3
ssg83
g3052
sg76
(lp3059
S'<class wsgiref.util.FileWrapper at 0x20db940>'
p3060
asbasbasbag69
(g85
g71
NtRp3061
(dp3062
g74
(dp3063
sg83
g2635
sg76
(lp3064
g69
(g90
g71
NtRp3065
(dp3066
g74
(dp3067
g94
g95
ssg83
g3061
sg76
(lp3068
S'wsgi.input'
p3069
asbag69
(g90
g71
NtRp3070
(dp3071
g74
(dp3072
g101
g102
ssg83
g3061
sg76
(lp3073
S':'
asbag69
(g90
g71
NtRp3074
(dp3075
g74
(dp3076
sg83
g3061
sg76
(lp3077
g69
(g70
g71
NtRp3078
(dp3079
g74
(dp3080
g82
I3
ssg83
g3074
sg76
(lp3081
S'<cStringIO.StringO object at 0x7fb7041351f0>'
p3082
asbasbasbag69
(g85
g71
NtRp3083
(dp3084
g74
(dp3085
sg83
g2635
sg76
(lp3086
g69
(g90
g71
NtRp3087
(dp3088
g74
(dp3089
g94
g95
ssg83
g3083
sg76
(lp3090
S'wsgi.multiprocess'
p3091
asbag69
(g90
g71
NtRp3092
(dp3093
g74
(dp3094
g101
g102
ssg83
g3083
sg76
(lp3095
S':'
asbag69
(g90
g71
NtRp3096
(dp3097
g74
(dp3098
sg83
g3083
sg76
(lp3099
g69
(g70
g71
NtRp3100
(dp3101
g74
(dp3102
g82
I3
ssg83
g3096
sg76
(lp3103
g112
asbasbasbag69
(g85
g71
NtRp3104
(dp3105
g74
(dp3106
sg83
g2635
sg76
(lp3107
g69
(g90
g71
NtRp3108
(dp3109
g74
(dp3110
g94
g95
ssg83
g3104
sg76
(lp3111
S'wsgi.multithread'
p3112
asbag69
(g90
g71
NtRp3113
(dp3114
g74
(dp3115
g101
g102
ssg83
g3104
sg76
(lp3116
S':'
asbag69
(g90
g71
NtRp3117
(dp3118
g74
(dp3119
sg83
g3104
sg76
(lp3120
g69
(g70
g71
NtRp3121
(dp3122
g74
(dp3123
g82
I3
ssg83
g3117
sg76
(lp3124
g1865
asbasbasbag69
(g85
g71
NtRp3125
(dp3126
g74
(dp3127
sg83
g2635
sg76
(lp3128
g69
(g90
g71
NtRp3129
(dp3130
g74
(dp3131
g94
g95
ssg83
g3125
sg76
(lp3132
S'wsgi.run_once'
p3133
asbag69
(g90
g71
NtRp3134
(dp3135
g74
(dp3136
g101
g102
ssg83
g3125
sg76
(lp3137
S':'
asbag69
(g90
g71
NtRp3138
(dp3139
g74
(dp3140
sg83
g3125
sg76
(lp3141
g69
(g70
g71
NtRp3142
(dp3143
g74
(dp3144
g82
I3
ssg83
g3138
sg76
(lp3145
g112
asbasbasbag69
(g85
g71
NtRp3146
(dp3147
g74
(dp3148
sg83
g2635
sg76
(lp3149
g69
(g90
g71
NtRp3150
(dp3151
g74
(dp3152
g94
g95
ssg83
g3146
sg76
(lp3153
S'wsgi.url_scheme'
p3154
asbag69
(g90
g71
NtRp3155
(dp3156
g74
(dp3157
g101
g102
ssg83
g3146
sg76
(lp3158
S':'
asbag69
(g90
g71
NtRp3159
(dp3160
g74
(dp3161
sg83
g3146
sg76
(lp3162
g69
(g70
g71
NtRp3163
(dp3164
g74
(dp3165
g82
I3
ssg83
g3159
sg76
(lp3166
g1908
asbasbasbag69
(g85
g71
NtRp3167
(dp3168
g74
(dp3169
sg83
g2635
sg76
(lp3170
g69
(g90
g71
NtRp3171
(dp3172
g74
(dp3173
g94
g95
ssg83
g3167
sg76
(lp3174
S'wsgi.version'
p3175
asbag69
(g90
g71
NtRp3176
(dp3177
g74
(dp3178
g101
g102
ssg83
g3167
sg76
(lp3179
S':'
asbag69
(g90
g71
NtRp3180
(dp3181
g74
(dp3182
sg83
g3167
sg76
(lp3183
g69
(g70
g71
NtRp3184
(dp3185
g74
(dp3186
g82
I3
ssg83
g3180
sg76
(lp3187
S'1'
asbasbasbasbasbasbasbasbasbasbasbasbasbsS'frames'
p3188
(lp3189
(dp3190
S'file'
p3191
S'/home/michael/Projects/Scrum-Web-Application-by-web2py/web2py/gluon/restricted.py'
p3192
sS'dump'
p3193
(dp3194
S'code'
p3195
S"'# -*- coding: utf-8 -*-\\n\\n#\\n#\\n#\\n#\\n\\ndef index():\\n ...orm=form)\\n\\nresponse._vars=response._caller(edit)\\n'"
p3196
sS'layer'
p3197
S"'/home/michael/Projects/Scrum-Web-Application-by-...ions/Scrum_Web_Application/controllers/product.py'"
p3198
sS'global compile2'
p3199
S'<function compile2>'
p3200
sS'ccode'
p3201
S'undefined'
p3202
ssS'lnum'
p3203
I204
sS'lines'
p3204
(dp3205
I199
S"    environment['__name__'] = '__restricted__'"
p3206
sI200
S'    try:'
p3207
sI201
S'        if type(code) == types.CodeType:'
p3208
sI202
S'            ccode = code'
p3209
sI203
S'        else:'
p3210
sI204
S'            ccode = compile2(code,layer)'
p3211
sI205
S'        exec ccode in environment'
p3212
sI206
S'    except HTTP:'
p3213
sI207
S'        raise'
p3214
sI208
S'    except RestrictedError:'
p3215
ssS'call'
p3216
S"(code='# -*- coding: utf-8 -*-\\n\\n#\\n#\\n#\\n#\\n\\ndef index():\\n ...orm=form)\\n\\nresponse._vars=response._caller(edit)\\n', environment={'A': <class 'gluon.html.A'>, 'Auth': <class 'gluon.tools.Auth'>, 'B': <class 'gluon.html.B'>, 'BEAUTIFY': <class 'gluon.html.BEAUTIFY'>, 'BODY': <class 'gluon.html.BODY'>, 'BR': <class 'gluon.html.BR'>, 'BUTTON': <class 'gluon.html.BUTTON'>, 'CAT': <class 'gluon.html.CAT'>, 'CENTER': <class 'gluon.html.CENTER'>, 'CLEANUP': <class 'gluon.validators.CLEANUP'>, ...}, layer='/home/michael/Projects/Scrum-Web-Application-by-...ions/Scrum_Web_Application/controllers/product.py')"
p3217
sS'func'
p3218
S'restricted'
p3219
sa(dp3220
g3191
S'/home/michael/Projects/Scrum-Web-Application-by-web2py/web2py/gluon/restricted.py'
p3221
sg3193
(dp3222
S'builtincompile'
p3223
S'<built-in function compile>'
p3224
sS'code'
p3225
S"'# -*- coding: utf-8 -*-\\n\\n#\\n#\\n#\\n#\\n\\ndef index():\\n ...orm=form)\\n\\nresponse._vars=response._caller(edit)\\n'"
p3226
sS'code.rstrip'
p3227
S'<built-in method rstrip of str object>'
p3228
sS').replace'
p3229
g3202
sS'layer'
p3230
S"'/home/michael/Projects/Scrum-Web-Application-by-...ions/Scrum_Web_Application/controllers/product.py'"
p3231
ssg3203
I189
sg3204
(dp3232
I192
S'    """'
p3233
sI193
S'    runs code in environment and returns the output. if an exception occurs'
p3234
sI184
S''
sI185
S'def compile2(code,layer):'
p3235
sI186
S'    """'
p3236
sI187
S"    The +'\\n' is necessary else compile fails when code ends in a comment."
p3237
sI188
S'    """'
p3238
sI189
S"    return compile(code.rstrip().replace('\\r\\n','\\n')+'\\n', layer, 'exec')"
p3239
sI190
S''
sI191
S"def restricted(code, environment=None, layer='Unknown'):"
p3240
ssg3216
S"(code='# -*- coding: utf-8 -*-\\n\\n#\\n#\\n#\\n#\\n\\ndef index():\\n ...orm=form)\\n\\nresponse._vars=response._caller(edit)\\n', layer='/home/michael/Projects/Scrum-Web-Application-by-...ions/Scrum_Web_Application/controllers/product.py')"
p3241
sg3218
S'compile2'
p3242
sasS'pyver'
p3243
S'Python 2.7.3: /usr/bin/python'
p3244
sS'session'
p3245
g69
(g70
g71
NtRp3246
(dp3247
g74
(dp3248
sg76
(lp3249
g69
(g78
g71
NtRp3250
(dp3251
g74
(dp3252
g82
I5
ssg83
Nsg76
(lp3253
g69
(g85
g71
NtRp3254
(dp3255
g74
(dp3256
sg83
g3250
sg76
(lp3257
g69
(g90
g71
NtRp3258
(dp3259
g74
(dp3260
g94
g95
ssg83
g3254
sg76
(lp3261
S'last_query'
p3262
asbag69
(g90
g71
NtRp3263
(dp3264
g74
(dp3265
g101
g102
ssg83
g3254
sg76
(lp3266
S':'
asbag69
(g90
g71
NtRp3267
(dp3268
g74
(dp3269
sg83
g3254
sg76
(lp3270
g69
(g70
g71
NtRp3271
(dp3272
g74
(dp3273
g82
I5
ssg83
g3267
sg76
(lp3274
S'db.auth_group.id>0'
p3275
asbasbasbasbasbsS'etype'
p3276
S"<type 'exceptions.SyntaxError'>"
p3277
sS'date'
p3278
S'Wed Jun 27 15:57:34 2012'
p3279
sS'response'
p3280
g69
(g70
g71
NtRp3281
(dp3282
g74
(dp3283
sg76
(lp3284
g69
(g78
g71
NtRp3285
(dp3286
g74
(dp3287
g82
I5
ssg83
Nsg76
(lp3288
g69
(g85
g71
NtRp3289
(dp3290
g74
(dp3291
sg83
g3285
sg76
(lp3292
g69
(g90
g71
NtRp3293
(dp3294
g74
(dp3295
g94
g95
ssg83
g3289
sg76
(lp3296
g179
asbag69
(g90
g71
NtRp3297
(dp3298
g74
(dp3299
g101
g102
ssg83
g3289
sg76
(lp3300
S':'
asbag69
(g90
g71
NtRp3301
(dp3302
g74
(dp3303
sg83
g3289
sg76
(lp3304
g69
(g70
g71
NtRp3305
(dp3306
g74
(dp3307
g82
I5
ssg83
g3301
sg76
(lp3308
S'<cStringIO.StringO object at 0x7fb6f44e1998>'
p3309
asbasbasbag69
(g85
g71
NtRp3310
(dp3311
g74
(dp3312
sg83
g3285
sg76
(lp3313
g69
(g90
g71
NtRp3314
(dp3315
g74
(dp3316
g94
g95
ssg83
g3310
sg76
(lp3317
g245
asbag69
(g90
g71
NtRp3318
(dp3319
g74
(dp3320
g101
g102
ssg83
g3310
sg76
(lp3321
S':'
asbag69
(g90
g71
NtRp3322
(dp3323
g74
(dp3324
sg83
g3310
sg76
(lp3325
g69
(g70
g71
NtRp3326
(dp3327
g74
(dp3328
g82
I5
ssg83
g3322
sg76
(lp3329
g69
(g78
g71
NtRp3330
(dp3331
g74
(dp3332
g82
I4
ssg83
Nsg76
(lp3333
g69
(g85
g71
NtRp3334
(dp3335
g74
(dp3336
sg83
g3330
sg76
(lp3337
g69
(g90
g71
NtRp3338
(dp3339
g74
(dp3340
g94
g95
ssg83
g3334
sg76
(lp3341
S'session_id_scrum_web_application'
p3342
asbag69
(g90
g71
NtRp3343
(dp3344
g74
(dp3345
g101
g102
ssg83
g3334
sg76
(lp3346
S':'
asbag69
(g90
g71
NtRp3347
(dp3348
g74
(dp3349
sg83
g3334
sg76
(lp3350
g69
(g70
g71
NtRp3351
(dp3352
g74
(dp3353
g82
I4
ssg83
g3347
sg76
(lp3354
g69
(g78
g71
NtRp3355
(dp3356
g74
(dp3357
g82
I3
ssg83
Nsg76
(lp3358
g69
(g85
g71
NtRp3359
(dp3360
g74
(dp3361
sg83
g3355
sg76
(lp3362
g69
(g90
g71
NtRp3363
(dp3364
g74
(dp3365
g94
g95
ssg83
g3359
sg76
(lp3366
g295
asbag69
(g90
g71
NtRp3367
(dp3368
g74
(dp3369
g101
g102
ssg83
g3359
sg76
(lp3370
S':'
asbag69
(g90
g71
NtRp3371
(dp3372
g74
(dp3373
sg83
g3359
sg76
(lp3374
g69
(g70
g71
NtRp3375
(dp3376
g74
(dp3377
g82
I3
ssg83
g3371
sg76
(lp3378
S''
asbasbasbag69
(g85
g71
NtRp3379
(dp3380
g74
(dp3381
sg83
g3355
sg76
(lp3382
g69
(g90
g71
NtRp3383
(dp3384
g74
(dp3385
g94
g95
ssg83
g3379
sg76
(lp3386
g316
asbag69
(g90
g71
NtRp3387
(dp3388
g74
(dp3389
g101
g102
ssg83
g3379
sg76
(lp3390
S':'
asbag69
(g90
g71
NtRp3391
(dp3392
g74
(dp3393
sg83
g3379
sg76
(lp3394
g69
(g70
g71
NtRp3395
(dp3396
g74
(dp3397
g82
I3
ssg83
g3391
sg76
(lp3398
S''
asbasbasbag69
(g85
g71
NtRp3399
(dp3400
g74
(dp3401
sg83
g3355
sg76
(lp3402
g69
(g90
g71
NtRp3403
(dp3404
g74
(dp3405
g94
g95
ssg83
g3399
sg76
(lp3406
g337
asbag69
(g90
g71
NtRp3407
(dp3408
g74
(dp3409
g101
g102
ssg83
g3399
sg76
(lp3410
S':'
asbag69
(g90
g71
NtRp3411
(dp3412
g74
(dp3413
sg83
g3399
sg76
(lp3414
g69
(g70
g71
NtRp3415
(dp3416
g74
(dp3417
g82
I3
ssg83
g3411
sg76
(lp3418
S''
asbasbasbag69
(g85
g71
NtRp3419
(dp3420
g74
(dp3421
sg83
g3355
sg76
(lp3422
g69
(g90
g71
NtRp3423
(dp3424
g74
(dp3425
g94
g95
ssg83
g3419
sg76
(lp3426
g358
asbag69
(g90
g71
NtRp3427
(dp3428
g74
(dp3429
g101
g102
ssg83
g3419
sg76
(lp3430
S':'
asbag69
(g90
g71
NtRp3431
(dp3432
g74
(dp3433
sg83
g3419
sg76
(lp3434
g69
(g70
g71
NtRp3435
(dp3436
g74
(dp3437
g82
I3
ssg83
g3431
sg76
(lp3438
S''
asbasbasbag69
(g85
g71
NtRp3439
(dp3440
g74
(dp3441
sg83
g3355
sg76
(lp3442
g69
(g90
g71
NtRp3443
(dp3444
g74
(dp3445
g94
g95
ssg83
g3439
sg76
(lp3446
g379
asbag69
(g90
g71
NtRp3447
(dp3448
g74
(dp3449
g101
g102
ssg83
g3439
sg76
(lp3450
S':'
asbag69
(g90
g71
NtRp3451
(dp3452
g74
(dp3453
sg83
g3439
sg76
(lp3454
g69
(g70
g71
NtRp3455
(dp3456
g74
(dp3457
g82
I3
ssg83
g3451
sg76
(lp3458
S''
asbasbasbag69
(g85
g71
NtRp3459
(dp3460
g74
(dp3461
sg83
g3355
sg76
(lp3462
g69
(g90
g71
NtRp3463
(dp3464
g74
(dp3465
g94
g95
ssg83
g3459
sg76
(lp3466
g400
asbag69
(g90
g71
NtRp3467
(dp3468
g74
(dp3469
g101
g102
ssg83
g3459
sg76
(lp3470
S':'
asbag69
(g90
g71
NtRp3471
(dp3472
g74
(dp3473
sg83
g3459
sg76
(lp3474
g69
(g70
g71
NtRp3475
(dp3476
g74
(dp3477
g82
I3
ssg83
g3471
sg76
(lp3478
S'/'
asbasbasbag69
(g85
g71
NtRp3479
(dp3480
g74
(dp3481
sg83
g3355
sg76
(lp3482
g69
(g90
g71
NtRp3483
(dp3484
g74
(dp3485
g94
g95
ssg83
g3479
sg76
(lp3486
g421
asbag69
(g90
g71
NtRp3487
(dp3488
g74
(dp3489
g101
g102
ssg83
g3479
sg76
(lp3490
S':'
asbag69
(g90
g71
NtRp3491
(dp3492
g74
(dp3493
sg83
g3479
sg76
(lp3494
g69
(g70
g71
NtRp3495
(dp3496
g74
(dp3497
g82
I3
ssg83
g3491
sg76
(lp3498
S''
asbasbasbag69
(g85
g71
NtRp3499
(dp3500
g74
(dp3501
sg83
g3355
sg76
(lp3502
g69
(g90
g71
NtRp3503
(dp3504
g74
(dp3505
g94
g95
ssg83
g3499
sg76
(lp3506
g442
asbag69
(g90
g71
NtRp3507
(dp3508
g74
(dp3509
g101
g102
ssg83
g3499
sg76
(lp3510
S':'
asbag69
(g90
g71
NtRp3511
(dp3512
g74
(dp3513
sg83
g3499
sg76
(lp3514
g69
(g70
g71
NtRp3515
(dp3516
g74
(dp3517
g82
I3
ssg83
g3511
sg76
(lp3518
S''
asbasbasbasbasbasbasbasbasbasbasbag69
(g85
g71
NtRp3519
(dp3520
g74
(dp3521
sg83
g3285
sg76
(lp3522
g69
(g90
g71
NtRp3523
(dp3524
g74
(dp3525
g94
g95
ssg83
g3519
sg76
(lp3526
S'delimiters'
p3527
asbag69
(g90
g71
NtRp3528
(dp3529
g74
(dp3530
g101
g102
ssg83
g3519
sg76
(lp3531
S':'
asbag69
(g90
g71
NtRp3532
(dp3533
g74
(dp3534
sg83
g3519
sg76
(lp3535
g69
(g70
g71
NtRp3536
(dp3537
g74
(dp3538
g82
I5
ssg83
g3532
sg76
(lp3539
g69
(g78
g71
NtRp3540
(dp3541
g74
(dp3542
g82
I4
ssg83
Nsg76
(lp3543
g69
(g85
g71
NtRp3544
(dp3545
g74
(dp3546
sg83
g3540
sg76
(lp3547
g69
(g90
g71
NtRp3548
(dp3549
g74
(dp3550
sg83
g3544
sg76
(lp3551
g69
(g70
g71
NtRp3552
(dp3553
g74
(dp3554
g82
I4
ssg83
g3548
sg76
(lp3555
S'{{'
p3556
asbasbasbag69
(g85
g71
NtRp3557
(dp3558
g74
(dp3559
sg83
g3540
sg76
(lp3560
g69
(g90
g71
NtRp3561
(dp3562
g74
(dp3563
sg83
g3557
sg76
(lp3564
g69
(g70
g71
NtRp3565
(dp3566
g74
(dp3567
g82
I4
ssg83
g3561
sg76
(lp3568
S'}}'
p3569
asbasbasbasbasbasbasbag69
(g85
g71
NtRp3570
(dp3571
g74
(dp3572
sg83
g3285
sg76
(lp3573
g69
(g90
g71
NtRp3574
(dp3575
g74
(dp3576
g94
g95
ssg83
g3570
sg76
(lp3577
S'files'
p3578
asbag69
(g90
g71
NtRp3579
(dp3580
g74
(dp3581
g101
g102
ssg83
g3570
sg76
(lp3582
S':'
asbag69
(g90
g71
NtRp3583
(dp3584
g74
(dp3585
sg83
g3570
sg76
(lp3586
g69
(g70
g71
NtRp3587
(dp3588
g74
(dp3589
g82
I5
ssg83
g3583
sg76
(lp3590
g69
(g78
g71
NtRp3591
(dp3592
g74
(dp3593
g82
I4
ssg83
Nsg76
(lp3594
sbasbasbasbag69
(g85
g71
NtRp3595
(dp3596
g74
(dp3597
sg83
g3285
sg76
(lp3598
g69
(g90
g71
NtRp3599
(dp3600
g74
(dp3601
g94
g95
ssg83
g3595
sg76
(lp3602
S'flash'
p3603
asbag69
(g90
g71
NtRp3604
(dp3605
g74
(dp3606
g101
g102
ssg83
g3595
sg76
(lp3607
S':'
asbag69
(g90
g71
NtRp3608
(dp3609
g74
(dp3610
sg83
g3595
sg76
(lp3611
g69
(g70
g71
NtRp3612
(dp3613
g74
(dp3614
g82
I5
ssg83
g3608
sg76
(lp3615
S''
asbasbasbag69
(g85
g71
NtRp3616
(dp3617
g74
(dp3618
sg83
g3285
sg76
(lp3619
g69
(g90
g71
NtRp3620
(dp3621
g74
(dp3622
g94
g95
ssg83
g3616
sg76
(lp3623
S'generic_patterns'
p3624
asbag69
(g90
g71
NtRp3625
(dp3626
g74
(dp3627
g101
g102
ssg83
g3616
sg76
(lp3628
S':'
asbag69
(g90
g71
NtRp3629
(dp3630
g74
(dp3631
sg83
g3616
sg76
(lp3632
g69
(g70
g71
NtRp3633
(dp3634
g74
(dp3635
g82
I5
ssg83
g3629
sg76
(lp3636
g69
(g78
g71
NtRp3637
(dp3638
g74
(dp3639
g82
I4
ssg83
Nsg76
(lp3640
g69
(g85
g71
NtRp3641
(dp3642
g74
(dp3643
sg83
g3637
sg76
(lp3644
g69
(g90
g71
NtRp3645
(dp3646
g74
(dp3647
sg83
g3641
sg76
(lp3648
g69
(g70
g71
NtRp3649
(dp3650
g74
(dp3651
g82
I4
ssg83
g3645
sg76
(lp3652
S'*'
asbasbasbasbasbasbasbag69
(g85
g71
NtRp3653
(dp3654
g74
(dp3655
sg83
g3285
sg76
(lp3656
g69
(g90
g71
NtRp3657
(dp3658
g74
(dp3659
g94
g95
ssg83
g3653
sg76
(lp3660
S'headers'
p3661
asbag69
(g90
g71
NtRp3662
(dp3663
g74
(dp3664
g101
g102
ssg83
g3653
sg76
(lp3665
S':'
asbag69
(g90
g71
NtRp3666
(dp3667
g74
(dp3668
sg83
g3653
sg76
(lp3669
g69
(g70
g71
NtRp3670
(dp3671
g74
(dp3672
g82
I5
ssg83
g3666
sg76
(lp3673
g69
(g78
g71
NtRp3674
(dp3675
g74
(dp3676
g82
I4
ssg83
Nsg76
(lp3677
g69
(g85
g71
NtRp3678
(dp3679
g74
(dp3680
sg83
g3674
sg76
(lp3681
g69
(g90
g71
NtRp3682
(dp3683
g74
(dp3684
g94
g95
ssg83
g3678
sg76
(lp3685
S'Cache-Control'
p3686
asbag69
(g90
g71
NtRp3687
(dp3688
g74
(dp3689
g101
g102
ssg83
g3678
sg76
(lp3690
S':'
asbag69
(g90
g71
NtRp3691
(dp3692
g74
(dp3693
sg83
g3678
sg76
(lp3694
g69
(g70
g71
NtRp3695
(dp3696
g74
(dp3697
g82
I4
ssg83
g3691
sg76
(lp3698
S'no-store, no-cache, must-revalidate, post-check=0, pre-check=0'
p3699
asbasbasbag69
(g85
g71
NtRp3700
(dp3701
g74
(dp3702
sg83
g3674
sg76
(lp3703
g69
(g90
g71
NtRp3704
(dp3705
g74
(dp3706
g94
g95
ssg83
g3700
sg76
(lp3707
S'Content-Type'
p3708
asbag69
(g90
g71
NtRp3709
(dp3710
g74
(dp3711
g101
g102
ssg83
g3700
sg76
(lp3712
S':'
asbag69
(g90
g71
NtRp3713
(dp3714
g74
(dp3715
sg83
g3700
sg76
(lp3716
g69
(g70
g71
NtRp3717
(dp3718
g74
(dp3719
g82
I4
ssg83
g3713
sg76
(lp3720
S'text/html; charset=utf-8'
p3721
asbasbasbag69
(g85
g71
NtRp3722
(dp3723
g74
(dp3724
sg83
g3674
sg76
(lp3725
g69
(g90
g71
NtRp3726
(dp3727
g74
(dp3728
g94
g95
ssg83
g3722
sg76
(lp3729
S'Expires'
p3730
asbag69
(g90
g71
NtRp3731
(dp3732
g74
(dp3733
g101
g102
ssg83
g3722
sg76
(lp3734
S':'
asbag69
(g90
g71
NtRp3735
(dp3736
g74
(dp3737
sg83
g3722
sg76
(lp3738
g69
(g70
g71
NtRp3739
(dp3740
g74
(dp3741
g82
I4
ssg83
g3735
sg76
(lp3742
S'Wed, 27 Jun 2012 07:57:34 GMT'
p3743
asbasbasbag69
(g85
g71
NtRp3744
(dp3745
g74
(dp3746
sg83
g3674
sg76
(lp3747
g69
(g90
g71
NtRp3748
(dp3749
g74
(dp3750
g94
g95
ssg83
g3744
sg76
(lp3751
S'Pragma'
p3752
asbag69
(g90
g71
NtRp3753
(dp3754
g74
(dp3755
g101
g102
ssg83
g3744
sg76
(lp3756
S':'
asbag69
(g90
g71
NtRp3757
(dp3758
g74
(dp3759
sg83
g3744
sg76
(lp3760
g69
(g70
g71
NtRp3761
(dp3762
g74
(dp3763
g82
I4
ssg83
g3757
sg76
(lp3764
S'no-cache'
p3765
asbasbasbag69
(g85
g71
NtRp3766
(dp3767
g74
(dp3768
sg83
g3674
sg76
(lp3769
g69
(g90
g71
NtRp3770
(dp3771
g74
(dp3772
g94
g95
ssg83
g3766
sg76
(lp3773
S'X-Powered-By'
p3774
asbag69
(g90
g71
NtRp3775
(dp3776
g74
(dp3777
g101
g102
ssg83
g3766
sg76
(lp3778
S':'
asbag69
(g90
g71
NtRp3779
(dp3780
g74
(dp3781
sg83
g3766
sg76
(lp3782
g69
(g70
g71
NtRp3783
(dp3784
g74
(dp3785
g82
I4
ssg83
g3779
sg76
(lp3786
S'web2py'
p3787
asbasbasbasbasbasbasbag69
(g85
g71
NtRp3788
(dp3789
g74
(dp3790
sg83
g3285
sg76
(lp3791
g69
(g90
g71
NtRp3792
(dp3793
g74
(dp3794
g94
g95
ssg83
g3788
sg76
(lp3795
S'menu'
p3796
asbag69
(g90
g71
NtRp3797
(dp3798
g74
(dp3799
g101
g102
ssg83
g3788
sg76
(lp3800
S':'
asbag69
(g90
g71
NtRp3801
(dp3802
g74
(dp3803
sg83
g3788
sg76
(lp3804
g69
(g70
g71
NtRp3805
(dp3806
g74
(dp3807
g82
I5
ssg83
g3801
sg76
(lp3808
g69
(g78
g71
NtRp3809
(dp3810
g74
(dp3811
g82
I4
ssg83
Nsg76
(lp3812
g69
(g85
g71
NtRp3813
(dp3814
g74
(dp3815
sg83
g3809
sg76
(lp3816
g69
(g90
g71
NtRp3817
(dp3818
g74
(dp3819
sg83
g3813
sg76
(lp3820
g69
(g70
g71
NtRp3821
(dp3822
g74
(dp3823
g82
I4
ssg83
g3817
sg76
(lp3824
g69
(g78
g71
NtRp3825
(dp3826
g74
(dp3827
g82
I3
ssg83
Nsg76
(lp3828
g69
(g85
g71
NtRp3829
(dp3830
g74
(dp3831
sg83
g3825
sg76
(lp3832
g69
(g90
g71
NtRp3833
(dp3834
g74
(dp3835
sg83
g3829
sg76
(lp3836
g69
(g70
g71
NtRp3837
(dp3838
g74
(dp3839
g82
I3
ssg83
g3833
sg76
(lp3840
cgluon.languages
lazyT_unpickle
p3841
(S't\x04\x00\x00\x00Home'
tRp3842
asbasbasbag69
(g85
g71
NtRp3843
(dp3844
g74
(dp3845
sg83
g3825
sg76
(lp3846
g69
(g90
g71
NtRp3847
(dp3848
g74
(dp3849
sg83
g3843
sg76
(lp3850
g69
(g70
g71
NtRp3851
(dp3852
g74
(dp3853
g82
I3
ssg83
g3847
sg76
(lp3854
g112
asbasbasbag69
(g85
g71
NtRp3855
(dp3856
g74
(dp3857
sg83
g3825
sg76
(lp3858
g69
(g90
g71
NtRp3859
(dp3860
g74
(dp3861
sg83
g3855
sg76
(lp3862
g69
(g70
g71
NtRp3863
(dp3864
g74
(dp3865
g82
I3
ssg83
g3859
sg76
(lp3866
S'/Scrum_Web_Application/default/index'
p3867
asbasbasbag69
(g85
g71
NtRp3868
(dp3869
g74
(dp3870
sg83
g3825
sg76
(lp3871
g69
(g90
g71
NtRp3872
(dp3873
g74
(dp3874
sg83
g3868
sg76
(lp3875
g69
(g70
g71
NtRp3876
(dp3877
g74
(dp3878
g82
I3
ssg83
g3872
sg76
(lp3879
g69
(g78
g71
NtRp3880
(dp3881
g74
(dp3882
g82
I2
ssg83
Nsg76
(lp3883
sbasbasbasbasbasbasbasbag69
(g85
g71
NtRp3884
(dp3885
g74
(dp3886
sg83
g3809
sg76
(lp3887
g69
(g90
g71
NtRp3888
(dp3889
g74
(dp3890
sg83
g3884
sg76
(lp3891
g69
(g70
g71
NtRp3892
(dp3893
g74
(dp3894
g82
I4
ssg83
g3888
sg76
(lp3895
g69
(g78
g71
NtRp3896
(dp3897
g74
(dp3898
g82
I3
ssg83
Nsg76
(lp3899
g69
(g85
g71
NtRp3900
(dp3901
g74
(dp3902
sg83
g3896
sg76
(lp3903
g69
(g90
g71
NtRp3904
(dp3905
g74
(dp3906
sg83
g3900
sg76
(lp3907
g69
(g70
g71
NtRp3908
(dp3909
g74
(dp3910
g82
I3
ssg83
g3904
sg76
(lp3911
g69
(cgluon.html
SPAN
p3912
g71
NtRp3913
(dp3914
g74
(dp3915
g94
S'color:yellow'
p3916
ssg83
Nsg76
(lp3917
g3787
asbasbasbasbag69
(g85
g71
NtRp3918
(dp3919
g74
(dp3920
sg83
g3896
sg76
(lp3921
g69
(g90
g71
NtRp3922
(dp3923
g74
(dp3924
sg83
g3918
sg76
(lp3925
g69
(g70
g71
NtRp3926
(dp3927
g74
(dp3928
g82
I3
ssg83
g3922
sg76
(lp3929
g112
asbasbasbag69
(g85
g71
NtRp3930
(dp3931
g74
(dp3932
sg83
g3896
sg76
(lp3933
g69
(g90
g71
NtRp3934
(dp3935
g74
(dp3936
sg83
g3930
sg76
(lp3937
g69
(g70
g71
NtRp3938
(dp3939
g74
(dp3940
g82
I3
ssg83
g3934
sg76
(lp3941
S'None'
p3942
asbasbasbag69
(g85
g71
NtRp3943
(dp3944
g74
(dp3945
sg83
g3896
sg76
(lp3946
g69
(g90
g71
NtRp3947
(dp3948
g74
(dp3949
sg83
g3943
sg76
(lp3950
g69
(g70
g71
NtRp3951
(dp3952
g74
(dp3953
g82
I3
ssg83
g3947
sg76
(lp3954
g69
(g78
g71
NtRp3955
(dp3956
g74
(dp3957
g82
I2
ssg83
Nsg76
(lp3958
g69
(g85
g71
NtRp3959
(dp3960
g74
(dp3961
sg83
g3955
sg76
(lp3962
g69
(g90
g71
NtRp3963
(dp3964
g74
(dp3965
sg83
g3959
sg76
(lp3966
g69
(g70
g71
NtRp3967
(dp3968
g74
(dp3969
g82
I2
ssg83
g3963
sg76
(lp3970
g69
(g78
g71
NtRp3971
(dp3972
g74
(dp3973
g82
I1
ssg83
Nsg76
(lp3974
g69
(g85
g71
NtRp3975
(dp3976
g74
(dp3977
sg83
g3971
sg76
(lp3978
g69
(g90
g71
NtRp3979
(dp3980
g74
(dp3981
sg83
g3975
sg76
(lp3982
g69
(g70
g71
NtRp3983
(dp3984
g74
(dp3985
g82
I1
ssg83
g3979
sg76
(lp3986
g3841
(S's\x08\x00\x00\x00My Sites'
tRp3987
asbasbasbag69
(g85
g71
NtRp3988
(dp3989
g74
(dp3990
sg83
g3971
sg76
(lp3991
g69
(g90
g71
NtRp3992
(dp3993
g74
(dp3994
sg83
g3988
sg76
(lp3995
g69
(g70
g71
NtRp3996
(dp3997
g74
(dp3998
g82
I1
ssg83
g3992
sg76
(lp3999
I00
asbasbasbag69
(g85
g71
NtRp4000
(dp4001
g74
(dp4002
sg83
g3971
sg76
(lp4003
g69
(g90
g71
NtRp4004
(dp4005
g74
(dp4006
sg83
g4000
sg76
(lp4007
g69
(g70
g71
NtRp4008
(dp4009
g74
(dp4010
g82
I1
ssg83
g4004
sg76
(lp4011
S'/admin/default/site'
p4012
asbasbasbasbasbasbasbag69
(g85
g71
NtRp4013
(dp4014
g74
(dp4015
sg83
g3955
sg76
(lp4016
g69
(g90
g71
NtRp4017
(dp4018
g74
(dp4019
sg83
g4013
sg76
(lp4020
g69
(g70
g71
NtRp4021
(dp4022
g74
(dp4023
g82
I2
ssg83
g4017
sg76
(lp4024
g69
(g78
g71
NtRp4025
(dp4026
g74
(dp4027
g82
I1
ssg83
Nsg76
(lp4028
g69
(g85
g71
NtRp4029
(dp4030
g74
(dp4031
sg83
g4025
sg76
(lp4032
g69
(g90
g71
NtRp4033
(dp4034
g74
(dp4035
sg83
g4029
sg76
(lp4036
g69
(g70
g71
NtRp4037
(dp4038
g74
(dp4039
g82
I1
ssg83
g4033
sg76
(lp4040
g3841
(S's\x08\x00\x00\x00This App'
tRp4041
asbasbasbag69
(g85
g71
NtRp4042
(dp4043
g74
(dp4044
sg83
g4025
sg76
(lp4045
g69
(g90
g71
NtRp4046
(dp4047
g74
(dp4048
sg83
g4042
sg76
(lp4049
g69
(g70
g71
NtRp4050
(dp4051
g74
(dp4052
g82
I1
ssg83
g4046
sg76
(lp4053
I00
asbasbasbag69
(g85
g71
NtRp4054
(dp4055
g74
(dp4056
sg83
g4025
sg76
(lp4057
g69
(g90
g71
NtRp4058
(dp4059
g74
(dp4060
sg83
g4054
sg76
(lp4061
g69
(g70
g71
NtRp4062
(dp4063
g74
(dp4064
g82
I1
ssg83
g4058
sg76
(lp4065
S'/admin/default/design/Scrum_Web_Application'
p4066
asbasbasbag69
(g85
g71
NtRp4067
(dp4068
g74
(dp4069
sg83
g4025
sg76
(lp4070
g69
(g90
g71
NtRp4071
(dp4072
g74
(dp4073
sg83
g4067
sg76
(lp4074
g69
(g70
g71
NtRp4075
(dp4076
g74
(dp4077
g82
I1
ssg83
g4071
sg76
(lp4078
(lp4079
(g3841
(S't\n\x00\x00\x00Controller'
tRp4080
I00
S'/admin/default/edit/Scrum_Web_Application/controllers/product.py'
tp4081
a(g3841
(S't\x04\x00\x00\x00View'
tRp4082
I00
S'/admin/default/edit/Scrum_Web_Application/views/product/edit.html'
tp4083
a(g3841
(S't\x06\x00\x00\x00Layout'
tRp4084
I00
S'/admin/default/edit/Scrum_Web_Application/views/layout.html'
tp4085
a(g3841
(S't\n\x00\x00\x00Stylesheet'
tRp4086
I00
S'/admin/default/edit/Scrum_Web_Application/static/css/web2py.css'
tp4087
a(g3841
(S's\x08\x00\x00\x00DB Model'
tRp4088
I00
S'/admin/default/edit/Scrum_Web_Application/models/db.py'
tp4089
a(g3841
(S's\n\x00\x00\x00Menu Model'
tRp4090
I00
S'/admin/default/edit/Scrum_Web_Application/models/menu.py'
tp4091
a(g3841
(S't\x08\x00\x00\x00Database'
tRp4092
I00
S'/Scrum_Web_Application/appadmin/index'
tp4093
a(g3841
(S't\x06\x00\x00\x00Errors'
tRp4094
I00
S'/admin/default/errors/Scrum_Web_Application'
tp4095
a(g3841
(S't\x05\x00\x00\x00About'
tRp4096
I00
S'/admin/default/about/Scrum_Web_Application'
tp4097
aasbasbasbasbasbasbasbag69
(g85
g71
NtRp4098
(dp4099
g74
(dp4100
sg83
g3955
sg76
(lp4101
g69
(g90
g71
NtRp4102
(dp4103
g74
(dp4104
sg83
g4098
sg76
(lp4105
g69
(g70
g71
NtRp4106
(dp4107
g74
(dp4108
g82
I2
ssg83
g4102
sg76
(lp4109
g69
(g78
g71
NtRp4110
(dp4111
g74
(dp4112
g82
I1
ssg83
Nsg76
(lp4113
g69
(g85
g71
NtRp4114
(dp4115
g74
(dp4116
sg83
g4110
sg76
(lp4117
g69
(g90
g71
NtRp4118
(dp4119
g74
(dp4120
sg83
g4114
sg76
(lp4121
g69
(g70
g71
NtRp4122
(dp4123
g74
(dp4124
g82
I1
ssg83
g4118
sg76
(lp4125
S'web2py.com'
p4126
asbasbasbag69
(g85
g71
NtRp4127
(dp4128
g74
(dp4129
sg83
g4110
sg76
(lp4130
g69
(g90
g71
NtRp4131
(dp4132
g74
(dp4133
sg83
g4127
sg76
(lp4134
g69
(g70
g71
NtRp4135
(dp4136
g74
(dp4137
g82
I1
ssg83
g4131
sg76
(lp4138
I00
asbasbasbag69
(g85
g71
NtRp4139
(dp4140
g74
(dp4141
sg83
g4110
sg76
(lp4142
g69
(g90
g71
NtRp4143
(dp4144
g74
(dp4145
sg83
g4139
sg76
(lp4146
g69
(g70
g71
NtRp4147
(dp4148
g74
(dp4149
g82
I1
ssg83
g4143
sg76
(lp4150
S'http://www.web2py.com'
p4151
asbasbasbag69
(g85
g71
NtRp4152
(dp4153
g74
(dp4154
sg83
g4110
sg76
(lp4155
g69
(g90
g71
NtRp4156
(dp4157
g74
(dp4158
sg83
g4152
sg76
(lp4159
g69
(g70
g71
NtRp4160
(dp4161
g74
(dp4162
g82
I1
ssg83
g4156
sg76
(lp4163
(lp4164
(g3841
(S't\x08\x00\x00\x00Download'
tRp4165
I00
S'http://www.web2py.com/examples/default/download'
p4166
tp4167
a(g3841
(S't\x07\x00\x00\x00Support'
tRp4168
I00
S'http://www.web2py.com/examples/default/support'
p4169
tp4170
a(g3841
(S't\x04\x00\x00\x00Demo'
tRp4171
I00
S'http://web2py.com/demo_admin'
p4172
tp4173
a(g3841
(S's\x0e\x00\x00\x00Quick Examples'
tRp4174
I00
S'http://web2py.com/examples/default/examples'
p4175
tp4176
a(g3841
(S't\x03\x00\x00\x00FAQ'
tRp4177
I00
S'http://web2py.com/AlterEgo'
p4178
tp4179
a(g3841
(S't\x06\x00\x00\x00Videos'
tRp4180
I00
S'http://www.web2py.com/examples/default/videos/'
p4181
tp4182
a(g3841
(S's\x11\x00\x00\x00Free Applications'
tRp4183
I00
S'http://web2py.com/appliances'
p4184
tp4185
a(g3841
(S't\x07\x00\x00\x00Plugins'
tRp4186
I00
S'http://web2py.com/plugins'
p4187
tp4188
a(g3841
(S't\x07\x00\x00\x00Layouts'
tRp4189
I00
S'http://web2py.com/layouts'
p4190
tp4191
a(g3841
(S't\x07\x00\x00\x00Recipes'
tRp4192
I00
S'http://web2pyslices.com/'
p4193
tp4194
a(g3841
(S't\x08\x00\x00\x00Semantic'
tRp4195
I00
S'http://web2py.com/semantic'
p4196
tp4197
aasbasbasbasbasbasbasbag69
(g85
g71
NtRp4198
(dp4199
g74
(dp4200
sg83
g3955
sg76
(lp4201
g69
(g90
g71
NtRp4202
(dp4203
g74
(dp4204
sg83
g4198
sg76
(lp4205
g69
(g70
g71
NtRp4206
(dp4207
g74
(dp4208
g82
I2
ssg83
g4202
sg76
(lp4209
g69
(g78
g71
NtRp4210
(dp4211
g74
(dp4212
g82
I1
ssg83
Nsg76
(lp4213
g69
(g85
g71
NtRp4214
(dp4215
g74
(dp4216
sg83
g4210
sg76
(lp4217
g69
(g90
g71
NtRp4218
(dp4219
g74
(dp4220
sg83
g4214
sg76
(lp4221
g69
(g70
g71
NtRp4222
(dp4223
g74
(dp4224
g82
I1
ssg83
g4218
sg76
(lp4225
g3841
(S't\r\x00\x00\x00Documentation'
tRp4226
asbasbasbag69
(g85
g71
NtRp4227
(dp4228
g74
(dp4229
sg83
g4210
sg76
(lp4230
g69
(g90
g71
NtRp4231
(dp4232
g74
(dp4233
sg83
g4227
sg76
(lp4234
g69
(g70
g71
NtRp4235
(dp4236
g74
(dp4237
g82
I1
ssg83
g4231
sg76
(lp4238
I00
asbasbasbag69
(g85
g71
NtRp4239
(dp4240
g74
(dp4241
sg83
g4210
sg76
(lp4242
g69
(g90
g71
NtRp4243
(dp4244
g74
(dp4245
sg83
g4239
sg76
(lp4246
g69
(g70
g71
NtRp4247
(dp4248
g74
(dp4249
g82
I1
ssg83
g4243
sg76
(lp4250
S'http://www.web2py.com/book'
p4251
asbasbasbag69
(g85
g71
NtRp4252
(dp4253
g74
(dp4254
sg83
g4210
sg76
(lp4255
g69
(g90
g71
NtRp4256
(dp4257
g74
(dp4258
sg83
g4252
sg76
(lp4259
g69
(g70
g71
NtRp4260
(dp4261
g74
(dp4262
g82
I1
ssg83
g4256
sg76
(lp4263
(lp4264
(g3841
(S't\x07\x00\x00\x00Preface'
tRp4265
I00
S'http://www.web2py.com/book/default/chapter/00'
p4266
tp4267
a(g3841
(S't\x0c\x00\x00\x00Introduction'
tRp4268
I00
S'http://www.web2py.com/book/default/chapter/01'
p4269
tp4270
a(g3841
(S't\x06\x00\x00\x00Python'
tRp4271
I00
S'http://www.web2py.com/book/default/chapter/02'
p4272
tp4273
a(g3841
(S't\x08\x00\x00\x00Overview'
tRp4274
I00
S'http://www.web2py.com/book/default/chapter/03'
p4275
tp4276
a(g3841
(S's\x08\x00\x00\x00The Core'
tRp4277
I00
S'http://www.web2py.com/book/default/chapter/04'
p4278
tp4279
a(g3841
(S's\t\x00\x00\x00The Views'
tRp4280
I00
S'http://www.web2py.com/book/default/chapter/05'
p4281
tp4282
a(g3841
(S't\x08\x00\x00\x00Database'
tRp4283
I00
S'http://www.web2py.com/book/default/chapter/06'
p4284
tp4285
a(g3841
(S's\x14\x00\x00\x00Forms and Validators'
tRp4286
I00
S'http://www.web2py.com/book/default/chapter/07'
p4287
tp4288
a(g3841
(S's\r\x00\x00\x00Email and SMS'
tRp4289
I00
S'http://www.web2py.com/book/default/chapter/08'
p4290
tp4291
a(g3841
(S's\x0e\x00\x00\x00Access Control'
tRp4292
I00
S'http://www.web2py.com/book/default/chapter/09'
p4293
tp4294
a(g3841
(S't\x08\x00\x00\x00Services'
tRp4295
I00
S'http://www.web2py.com/book/default/chapter/10'
p4296
tp4297
a(g3841
(S's\x0c\x00\x00\x00Ajax Recipes'
tRp4298
I00
S'http://www.web2py.com/book/default/chapter/11'
p4299
tp4300
a(g3841
(S's\x16\x00\x00\x00Components and Plugins'
tRp4301
I00
S'http://www.web2py.com/book/default/chapter/12'
p4302
tp4303
a(g3841
(S's\x12\x00\x00\x00Deployment Recipes'
tRp4304
I00
S'http://www.web2py.com/book/default/chapter/13'
p4305
tp4306
a(g3841
(S's\r\x00\x00\x00Other Recipes'
tRp4307
I00
S'http://www.web2py.com/book/default/chapter/14'
p4308
tp4309
a(g3841
(S's\r\x00\x00\x00Buy this book'
tRp4310
I00
S'http://stores.lulu.com/web2py'
p4311
tp4312
aasbasbasbasbasbasbasbag69
(g85
g71
NtRp4313
(dp4314
g74
(dp4315
sg83
g3955
sg76
(lp4316
g69
(g90
g71
NtRp4317
(dp4318
g74
(dp4319
sg83
g4313
sg76
(lp4320
g69
(g70
g71
NtRp4321
(dp4322
g74
(dp4323
g82
I2
ssg83
g4317
sg76
(lp4324
g69
(g78
g71
NtRp4325
(dp4326
g74
(dp4327
g82
I1
ssg83
Nsg76
(lp4328
g69
(g85
g71
NtRp4329
(dp4330
g74
(dp4331
sg83
g4325
sg76
(lp4332
g69
(g90
g71
NtRp4333
(dp4334
g74
(dp4335
sg83
g4329
sg76
(lp4336
g69
(g70
g71
NtRp4337
(dp4338
g74
(dp4339
g82
I1
ssg83
g4333
sg76
(lp4340
g3841
(S't\t\x00\x00\x00Community'
tRp4341
asbasbasbag69
(g85
g71
NtRp4342
(dp4343
g74
(dp4344
sg83
g4325
sg76
(lp4345
g69
(g90
g71
NtRp4346
(dp4347
g74
(dp4348
sg83
g4342
sg76
(lp4349
g69
(g70
g71
NtRp4350
(dp4351
g74
(dp4352
g82
I1
ssg83
g4346
sg76
(lp4353
I00
asbasbasbag69
(g85
g71
NtRp4354
(dp4355
g74
(dp4356
sg83
g4325
sg76
(lp4357
g69
(g90
g71
NtRp4358
(dp4359
g74
(dp4360
sg83
g4354
sg76
(lp4361
g69
(g70
g71
NtRp4362
(dp4363
g74
(dp4364
g82
I1
ssg83
g4358
sg76
(lp4365
Nasbasbasbag69
(g85
g71
NtRp4366
(dp4367
g74
(dp4368
sg83
g4325
sg76
(lp4369
g69
(g90
g71
NtRp4370
(dp4371
g74
(dp4372
sg83
g4366
sg76
(lp4373
g69
(g70
g71
NtRp4374
(dp4375
g74
(dp4376
g82
I1
ssg83
g4370
sg76
(lp4377
(lp4378
(g3841
(S't\x06\x00\x00\x00Groups'
tRp4379
I00
S'http://www.web2py.com/examples/default/usergroups'
p4380
tp4381
a(g3841
(S't\x07\x00\x00\x00Twitter'
tRp4382
I00
S'http://twitter.com/web2py'
p4383
tp4384
a(g3841
(S's\t\x00\x00\x00Live Chat'
tRp4385
I00
S'http://webchat.freenode.net/?channels=web2py'
p4386
tp4387
aasbasbasbasbasbasbasbag69
(g85
g71
NtRp4388
(dp4389
g74
(dp4390
sg83
g3955
sg76
(lp4391
g69
(g90
g71
NtRp4392
(dp4393
g74
(dp4394
sg83
g4388
sg76
(lp4395
g69
(g70
g71
NtRp4396
(dp4397
g74
(dp4398
g82
I2
ssg83
g4392
sg76
(lp4399
g69
(g78
g71
NtRp4400
(dp4401
g74
(dp4402
g82
I1
ssg83
Nsg76
(lp4403
g69
(g85
g71
NtRp4404
(dp4405
g74
(dp4406
sg83
g4400
sg76
(lp4407
g69
(g90
g71
NtRp4408
(dp4409
g74
(dp4410
sg83
g4404
sg76
(lp4411
g69
(g70
g71
NtRp4412
(dp4413
g74
(dp4414
g82
I1
ssg83
g4408
sg76
(lp4415
g3841
(S't\x07\x00\x00\x00Plugins'
tRp4416
asbasbasbag69
(g85
g71
NtRp4417
(dp4418
g74
(dp4419
sg83
g4400
sg76
(lp4420
g69
(g90
g71
NtRp4421
(dp4422
g74
(dp4423
sg83
g4417
sg76
(lp4424
g69
(g70
g71
NtRp4425
(dp4426
g74
(dp4427
g82
I1
ssg83
g4421
sg76
(lp4428
I00
asbasbasbag69
(g85
g71
NtRp4429
(dp4430
g74
(dp4431
sg83
g4400
sg76
(lp4432
g69
(g90
g71
NtRp4433
(dp4434
g74
(dp4435
sg83
g4429
sg76
(lp4436
g69
(g70
g71
NtRp4437
(dp4438
g74
(dp4439
g82
I1
ssg83
g4433
sg76
(lp4440
Nasbasbasbag69
(g85
g71
NtRp4441
(dp4442
g74
(dp4443
sg83
g4400
sg76
(lp4444
g69
(g90
g71
NtRp4445
(dp4446
g74
(dp4447
sg83
g4441
sg76
(lp4448
g69
(g70
g71
NtRp4449
(dp4450
g74
(dp4451
g82
I1
ssg83
g4445
sg76
(lp4452
(lp4453
(S'plugin_wiki'
p4454
I00
S'http://web2py.com/examples/default/download'
p4455
tp4456
a(g3841
(S's\r\x00\x00\x00Other Plugins'
tRp4457
I00
g4187
tp4458
a(g3841
(S's\x0e\x00\x00\x00Layout Plugins'
tRp4459
I00
g4190
tp4460
aasbasbasbasbasbasbasbasbasbasbasbasbasbasbasbasbasbasbasbag69
(g85
g71
NtRp4461
(dp4462
g74
(dp4463
sg83
g3285
sg76
(lp4464
g69
(g90
g71
NtRp4465
(dp4466
g74
(dp4467
g94
g95
ssg83
g4461
sg76
(lp4468
S'meta'
p4469
asbag69
(g90
g71
NtRp4470
(dp4471
g74
(dp4472
g101
g102
ssg83
g4461
sg76
(lp4473
S':'
asbag69
(g90
g71
NtRp4474
(dp4475
g74
(dp4476
sg83
g4461
sg76
(lp4477
g69
(g70
g71
NtRp4478
(dp4479
g74
(dp4480
g82
I5
ssg83
g4474
sg76
(lp4481
g69
(g78
g71
NtRp4482
(dp4483
g74
(dp4484
g82
I4
ssg83
Nsg76
(lp4485
g69
(g85
g71
NtRp4486
(dp4487
g74
(dp4488
sg83
g4482
sg76
(lp4489
g69
(g90
g71
NtRp4490
(dp4491
g74
(dp4492
g94
g95
ssg83
g4486
sg76
(lp4493
S'author'
p4494
asbag69
(g90
g71
NtRp4495
(dp4496
g74
(dp4497
g101
g102
ssg83
g4486
sg76
(lp4498
S':'
asbag69
(g90
g71
NtRp4499
(dp4500
g74
(dp4501
sg83
g4486
sg76
(lp4502
g69
(g70
g71
NtRp4503
(dp4504
g74
(dp4505
g82
I4
ssg83
g4499
sg76
(lp4506
S'Your Name <you@example.com>'
p4507
asbasbasbag69
(g85
g71
NtRp4508
(dp4509
g74
(dp4510
sg83
g4482
sg76
(lp4511
g69
(g90
g71
NtRp4512
(dp4513
g74
(dp4514
g94
g95
ssg83
g4508
sg76
(lp4515
S'copyright'
p4516
asbag69
(g90
g71
NtRp4517
(dp4518
g74
(dp4519
g101
g102
ssg83
g4508
sg76
(lp4520
S':'
asbag69
(g90
g71
NtRp4521
(dp4522
g74
(dp4523
sg83
g4508
sg76
(lp4524
g69
(g70
g71
NtRp4525
(dp4526
g74
(dp4527
g82
I4
ssg83
g4521
sg76
(lp4528
S'Copyright 2011'
p4529
asbasbasbag69
(g85
g71
NtRp4530
(dp4531
g74
(dp4532
sg83
g4482
sg76
(lp4533
g69
(g90
g71
NtRp4534
(dp4535
g74
(dp4536
g94
g95
ssg83
g4530
sg76
(lp4537
S'description'
p4538
asbag69
(g90
g71
NtRp4539
(dp4540
g74
(dp4541
g101
g102
ssg83
g4530
sg76
(lp4542
S':'
asbag69
(g90
g71
NtRp4543
(dp4544
g74
(dp4545
sg83
g4530
sg76
(lp4546
g69
(g70
g71
NtRp4547
(dp4548
g74
(dp4549
g82
I4
ssg83
g4543
sg76
(lp4550
S'a cool new app'
p4551
asbasbasbag69
(g85
g71
NtRp4552
(dp4553
g74
(dp4554
sg83
g4482
sg76
(lp4555
g69
(g90
g71
NtRp4556
(dp4557
g74
(dp4558
g94
g95
ssg83
g4552
sg76
(lp4559
S'generator'
p4560
asbag69
(g90
g71
NtRp4561
(dp4562
g74
(dp4563
g101
g102
ssg83
g4552
sg76
(lp4564
S':'
asbag69
(g90
g71
NtRp4565
(dp4566
g74
(dp4567
sg83
g4552
sg76
(lp4568
g69
(g70
g71
NtRp4569
(dp4570
g74
(dp4571
g82
I4
ssg83
g4565
sg76
(lp4572
S'Web2py Web Framework'
p4573
asbasbasbag69
(g85
g71
NtRp4574
(dp4575
g74
(dp4576
sg83
g4482
sg76
(lp4577
g69
(g90
g71
NtRp4578
(dp4579
g74
(dp4580
g94
g95
ssg83
g4574
sg76
(lp4581
S'keywords'
p4582
asbag69
(g90
g71
NtRp4583
(dp4584
g74
(dp4585
g101
g102
ssg83
g4574
sg76
(lp4586
S':'
asbag69
(g90
g71
NtRp4587
(dp4588
g74
(dp4589
sg83
g4574
sg76
(lp4590
g69
(g70
g71
NtRp4591
(dp4592
g74
(dp4593
g82
I4
ssg83
g4587
sg76
(lp4594
S'web2py, python, framework'
p4595
asbasbasbasbasbasbasbag69
(g85
g71
NtRp4596
(dp4597
g74
(dp4598
sg83
g3285
sg76
(lp4599
g69
(g90
g71
NtRp4600
(dp4601
g74
(dp4602
g94
g95
ssg83
g4596
sg76
(lp4603
S'postprocessing'
p4604
asbag69
(g90
g71
NtRp4605
(dp4606
g74
(dp4607
g101
g102
ssg83
g4596
sg76
(lp4608
S':'
asbag69
(g90
g71
NtRp4609
(dp4610
g74
(dp4611
sg83
g4596
sg76
(lp4612
g69
(g70
g71
NtRp4613
(dp4614
g74
(dp4615
g82
I5
ssg83
g4609
sg76
(lp4616
g69
(g78
g71
NtRp4617
(dp4618
g74
(dp4619
g82
I4
ssg83
Nsg76
(lp4620
sbasbasbasbag69
(g85
g71
NtRp4621
(dp4622
g74
(dp4623
sg83
g3285
sg76
(lp4624
g69
(g90
g71
NtRp4625
(dp4626
g74
(dp4627
g94
g95
ssg83
g4621
sg76
(lp4628
S'session_file'
p4629
asbag69
(g90
g71
NtRp4630
(dp4631
g74
(dp4632
g101
g102
ssg83
g4621
sg76
(lp4633
S':'
asbag69
(g90
g71
NtRp4634
(dp4635
g74
(dp4636
sg83
g4621
sg76
(lp4637
g69
(g70
g71
NtRp4638
(dp4639
g74
(dp4640
g82
I5
ssg83
g4634
sg76
(lp4641
S"<open file '/home/michael/Projects/Scrum-Web-Application-by-web2py/web2py/applications/Scrum_Web_Application/sessions/127.0.0.1-249863be-67e2-47ba-9b85-a03cb2e9e8ef', mode 'rb+' at 0x7fb708689150>"
p4642
asbasbasbag69
(g85
g71
NtRp4643
(dp4644
g74
(dp4645
sg83
g3285
sg76
(lp4646
g69
(g90
g71
NtRp4647
(dp4648
g74
(dp4649
g94
g95
ssg83
g4643
sg76
(lp4650
S'session_filename'
p4651
asbag69
(g90
g71
NtRp4652
(dp4653
g74
(dp4654
g101
g102
ssg83
g4643
sg76
(lp4655
S':'
asbag69
(g90
g71
NtRp4656
(dp4657
g74
(dp4658
sg83
g4643
sg76
(lp4659
g69
(g70
g71
NtRp4660
(dp4661
g74
(dp4662
g82
I5
ssg83
g4656
sg76
(lp4663
S'/home/michael/Projects/Scrum-Web-Application-by-web2py/web2py/applications/Scrum_Web_Application/sessions/127.0.0.1-249863be-67e2-47ba-9b85-a03cb2e9e8ef'
p4664
asbasbasbag69
(g85
g71
NtRp4665
(dp4666
g74
(dp4667
sg83
g3285
sg76
(lp4668
g69
(g90
g71
NtRp4669
(dp4670
g74
(dp4671
g94
g95
ssg83
g4665
sg76
(lp4672
S'session_id'
p4673
asbag69
(g90
g71
NtRp4674
(dp4675
g74
(dp4676
g101
g102
ssg83
g4665
sg76
(lp4677
S':'
asbag69
(g90
g71
NtRp4678
(dp4679
g74
(dp4680
sg83
g4665
sg76
(lp4681
g69
(g70
g71
NtRp4682
(dp4683
g74
(dp4684
g82
I5
ssg83
g4678
sg76
(lp4685
S'127.0.0.1-249863be-67e2-47ba-9b85-a03cb2e9e8ef'
p4686
asbasbasbag69
(g85
g71
NtRp4687
(dp4688
g74
(dp4689
sg83
g3285
sg76
(lp4690
g69
(g90
g71
NtRp4691
(dp4692
g74
(dp4693
g94
g95
ssg83
g4687
sg76
(lp4694
S'session_id_name'
p4695
asbag69
(g90
g71
NtRp4696
(dp4697
g74
(dp4698
g101
g102
ssg83
g4687
sg76
(lp4699
S':'
asbag69
(g90
g71
NtRp4700
(dp4701
g74
(dp4702
sg83
g4687
sg76
(lp4703
g69
(g70
g71
NtRp4704
(dp4705
g74
(dp4706
g82
I5
ssg83
g4700
sg76
(lp4707
g3342
asbasbasbag69
(g85
g71
NtRp4708
(dp4709
g74
(dp4710
sg83
g3285
sg76
(lp4711
g69
(g90
g71
NtRp4712
(dp4713
g74
(dp4714
g94
g95
ssg83
g4708
sg76
(lp4715
S'session_locked'
p4716
asbag69
(g90
g71
NtRp4717
(dp4718
g74
(dp4719
g101
g102
ssg83
g4708
sg76
(lp4720
S':'
asbag69
(g90
g71
NtRp4721
(dp4722
g74
(dp4723
sg83
g4708
sg76
(lp4724
g69
(g70
g71
NtRp4725
(dp4726
g74
(dp4727
g82
I5
ssg83
g4721
sg76
(lp4728
g1865
asbasbasbag69
(g85
g71
NtRp4729
(dp4730
g74
(dp4731
sg83
g3285
sg76
(lp4732
g69
(g90
g71
NtRp4733
(dp4734
g74
(dp4735
g94
g95
ssg83
g4729
sg76
(lp4736
S'session_new'
p4737
asbag69
(g90
g71
NtRp4738
(dp4739
g74
(dp4740
g101
g102
ssg83
g4729
sg76
(lp4741
S':'
asbag69
(g90
g71
NtRp4742
(dp4743
g74
(dp4744
sg83
g4729
sg76
(lp4745
g69
(g70
g71
NtRp4746
(dp4747
g74
(dp4748
g82
I5
ssg83
g4742
sg76
(lp4749
g112
asbasbasbag69
(g85
g71
NtRp4750
(dp4751
g74
(dp4752
sg83
g3285
sg76
(lp4753
g69
(g90
g71
NtRp4754
(dp4755
g74
(dp4756
g94
g95
ssg83
g4750
sg76
(lp4757
S'status'
p4758
asbag69
(g90
g71
NtRp4759
(dp4760
g74
(dp4761
g101
g102
ssg83
g4750
sg76
(lp4762
S':'
asbag69
(g90
g71
NtRp4763
(dp4764
g74
(dp4765
sg83
g4750
sg76
(lp4766
g69
(g70
g71
NtRp4767
(dp4768
g74
(dp4769
g82
I5
ssg83
g4763
sg76
(lp4770
S'200'
p4771
asbasbasbag69
(g85
g71
NtRp4772
(dp4773
g74
(dp4774
sg83
g3285
sg76
(lp4775
g69
(g90
g71
NtRp4776
(dp4777
g74
(dp4778
g94
g95
ssg83
g4772
sg76
(lp4779
S'subtitle'
p4780
asbag69
(g90
g71
NtRp4781
(dp4782
g74
(dp4783
g101
g102
ssg83
g4772
sg76
(lp4784
S':'
asbag69
(g90
g71
NtRp4785
(dp4786
g74
(dp4787
sg83
g4772
sg76
(lp4788
g69
(g70
g71
NtRp4789
(dp4790
g74
(dp4791
g82
I5
ssg83
g4785
sg76
(lp4792
g3841
(S's\r\x00\x00\x00customize me!'
tRp4793
asbasbasbag69
(g85
g71
NtRp4794
(dp4795
g74
(dp4796
sg83
g3285
sg76
(lp4797
g69
(g90
g71
NtRp4798
(dp4799
g74
(dp4800
g94
g95
ssg83
g4794
sg76
(lp4801
S'title'
p4802
asbag69
(g90
g71
NtRp4803
(dp4804
g74
(dp4805
g101
g102
ssg83
g4794
sg76
(lp4806
S':'
asbag69
(g90
g71
NtRp4807
(dp4808
g74
(dp4809
sg83
g4794
sg76
(lp4810
g69
(g70
g71
NtRp4811
(dp4812
g74
(dp4813
g82
I5
ssg83
g4807
sg76
(lp4814
S'Scrum Web Application'
p4815
asbasbasbag69
(g85
g71
NtRp4816
(dp4817
g74
(dp4818
sg83
g3285
sg76
(lp4819
g69
(g90
g71
NtRp4820
(dp4821
g74
(dp4822
g94
g95
ssg83
g4816
sg76
(lp4823
g2550
asbag69
(g90
g71
NtRp4824
(dp4825
g74
(dp4826
g101
g102
ssg83
g4816
sg76
(lp4827
S':'
asbag69
(g90
g71
NtRp4828
(dp4829
g74
(dp4830
sg83
g4816
sg76
(lp4831
g69
(g70
g71
NtRp4832
(dp4833
g74
(dp4834
g82
I5
ssg83
g4828
sg76
(lp4835
g2563
asbasbasbag69
(g85
g71
NtRp4836
(dp4837
g74
(dp4838
sg83
g3285
sg76
(lp4839
g69
(g90
g71
NtRp4840
(dp4841
g74
(dp4842
g94
g95
ssg83
g4836
sg76
(lp4843
S'view'
p4844
asbag69
(g90
g71
NtRp4845
(dp4846
g74
(dp4847
g101
g102
ssg83
g4836
sg76
(lp4848
S':'
asbag69
(g90
g71
NtRp4849
(dp4850
g74
(dp4851
sg83
g4836
sg76
(lp4852
g69
(g70
g71
NtRp4853
(dp4854
g74
(dp4855
g82
I5
ssg83
g4849
sg76
(lp4856
S'product/edit.html'
p4857
asbasbasbasbasbsS'locals'
p4858
(dp4859
g4
S"'/home/michael/Projects/Scrum-Web-Application-by-...ions/Scrum_Web_Application/controllers/product.py'"
p4860
sg6
S"'# -*- coding: utf-8 -*-\\n\\n#\\n#\\n#\\n#\\n\\ndef index():\\n ...orm=form)\\n\\nresponse._vars=response._caller(edit)\\n'"
p4861
sssS'traceback'
p4862
S'Traceback (most recent call last):\n  File "/home/michael/Projects/Scrum-Web-Application-by-web2py/web2py/gluon/restricted.py", line 204, in restricted\n    ccode = compile2(code,layer)\n  File "/home/michael/Projects/Scrum-Web-Application-by-web2py/web2py/gluon/restricted.py", line 189, in compile2\n    return compile(code.rstrip().replace(\'\\r\\n\',\'\\n\')+\'\\n\', layer, \'exec\')\n  File "/home/michael/Projects/Scrum-Web-Application-by-web2py/web2py/applications/Scrum_Web_Application/controllers/product.py", line 21\n    product_backlogs = db(db.backlog.product_id = this_product.id).select()\nSyntaxError: keyword can\'t be an expression\n'
p4863
s.