(dp1
S'output'
p2
S"<type 'exceptions.SyntaxError'> not enough information to build the url"
p3
sS'layer'
p4
S'/home/michael/Projects/Scrum-Web-Application-by-web2py/web2py/applications/Scrum_Web_Application/controllers/backlog.py'
p5
sS'code'
p6
S'# -*- coding: utf-8 -*-\n\n#\n# Backlog Controller\n#\n#\n\ndef index():\n    """\n    Shows all created backlogs of the product\n    """\n    this_product = db.product(request.args(0)) or redirect(URL(\'/product/index\'))\n    backlogs = db(db.backlog.product_id == this_product.id).select()\n    return dict(backlogs=backlogs)\n                    \ndef create():\n    this_product = db.product(request.args(0)) or redirect(URL(\'index\'))\n    db.backlog.product_id.default=this_product.id\n    form = crud.create(db.backlog, next=URL(\'index\'))\n    return dict(form=form)\n                            \ndef show():\n    this_backlog = db.backlog(request.args(0)) or redirect(URL(\'index\'))\n    this_product = db.product(this_backlog.product_id)\n    return dict(product=this_product, backlog=this_backlog)\n                \ndef edit():\n    this_backlog = db.backlog(request.args(0)) or redirect(URL(\'index\'))\n    this_product = db.product(this_backlog.product_id)\n    form = crud.update(db.backlog, this_backlog, next=URL(\'index\'))\n    return dict(form=form)\n\nresponse._vars=response._caller(index)\n'
p7
sS'snapshot'
p8
(dp9
S'exception'
p10
(dp11
S'__getslice__'
p12
S"<method-wrapper '__getslice__' of exceptions.SyntaxError object>"
p13
sS'text'
p14
S'None'
p15
sS'__str__'
p16
S"<method-wrapper '__str__' of exceptions.SyntaxError object>"
p17
sS'__reduce__'
p18
S'<built-in method __reduce__ of exceptions.SyntaxError object>'
p19
sS'__dict__'
p20
S'{}'
p21
sS'__sizeof__'
p22
S'<built-in method __sizeof__ of exceptions.SyntaxError object>'
p23
sS'__init__'
p24
S"<method-wrapper '__init__' of exceptions.SyntaxError object>"
p25
sS'__setattr__'
p26
S"<method-wrapper '__setattr__' of exceptions.SyntaxError object>"
p27
sS'__reduce_ex__'
p28
S'<built-in method __reduce_ex__ of exceptions.SyntaxError object>'
p29
sS'__new__'
p30
S'<built-in method __new__ of type object>'
p31
sS'__format__'
p32
S'<built-in method __format__ of exceptions.SyntaxError object>'
p33
sS'__class__'
p34
S"<type 'exceptions.SyntaxError'>"
p35
sS'filename'
p36
S'None'
p37
sS'lineno'
p38
S'None'
p39
sS'msg'
p40
S"'not enough information to build the url'"
p41
sS'__doc__'
p42
S"'Invalid syntax.'"
p43
sS'__getitem__'
p44
S"<method-wrapper '__getitem__' of exceptions.SyntaxError object>"
p45
sS'__setstate__'
p46
S'<built-in method __setstate__ of exceptions.SyntaxError object>'
p47
sS'__getattribute__'
p48
S"<method-wrapper '__getattribute__' of exceptions.SyntaxError object>"
p49
sS'print_file_and_line'
p50
S'None'
p51
sS'args'
p52
S"('not enough information to build the url',)"
p53
sS'__subclasshook__'
p54
S'<built-in method __subclasshook__ of type object>'
p55
sS'offset'
p56
S'None'
p57
sS'__unicode__'
p58
S'<built-in method __unicode__ of exceptions.SyntaxError object>'
p59
sS'__delattr__'
p60
S"<method-wrapper '__delattr__' of exceptions.SyntaxError object>"
p61
sS'__repr__'
p62
S"<method-wrapper '__repr__' of exceptions.SyntaxError object>"
p63
sS'__hash__'
p64
S"<method-wrapper '__hash__' of exceptions.SyntaxError object>"
p65
ssS'evalue'
p66
S'not enough information to build the url'
p67
sS'request'
p68
ccopy_reg
_reconstructor
p69
(cgluon.html
BEAUTIFY
p70
c__builtin__
object
p71
NtRp72
(dp73
S'attributes'
p74
(dp75
sS'components'
p76
(lp77
g69
(cgluon.html
TABLE
p78
g71
NtRp79
(dp80
g74
(dp81
S'level'
p82
I5
ssS'parent'
p83
Nsg76
(lp84
g69
(cgluon.html
TR
p85
g71
NtRp86
(dp87
g74
(dp88
sg83
g79
sg76
(lp89
g69
(cgluon.html
TD
p90
g71
NtRp91
(dp92
g74
(dp93
S'_style'
p94
S'font-weight:bold;vertical-align:top'
p95
ssg83
g86
sg76
(lp96
S'ajax'
p97
asbag69
(g90
g71
NtRp98
(dp99
g74
(dp100
S'_valign'
p101
S'top'
p102
ssg83
g86
sg76
(lp103
S':'
asbag69
(g90
g71
NtRp104
(dp105
g74
(dp106
sg83
g86
sg76
(lp107
g69
(g70
g71
NtRp108
(dp109
g74
(dp110
g82
I5
ssg83
g104
sg76
(lp111
S'False'
p112
asbasbasbag69
(g85
g71
NtRp113
(dp114
g74
(dp115
sg83
g79
sg76
(lp116
g69
(g90
g71
NtRp117
(dp118
g74
(dp119
g94
g95
ssg83
g113
sg76
(lp120
S'application'
p121
asbag69
(g90
g71
NtRp122
(dp123
g74
(dp124
g101
g102
ssg83
g113
sg76
(lp125
S':'
asbag69
(g90
g71
NtRp126
(dp127
g74
(dp128
sg83
g113
sg76
(lp129
g69
(g70
g71
NtRp130
(dp131
g74
(dp132
g82
I5
ssg83
g126
sg76
(lp133
S'Scrum_Web_Application'
p134
asbasbasbag69
(g85
g71
NtRp135
(dp136
g74
(dp137
sg83
g79
sg76
(lp138
g69
(g90
g71
NtRp139
(dp140
g74
(dp141
g94
g95
ssg83
g135
sg76
(lp142
g52
asbag69
(g90
g71
NtRp143
(dp144
g74
(dp145
g101
g102
ssg83
g135
sg76
(lp146
S':'
asbag69
(g90
g71
NtRp147
(dp148
g74
(dp149
sg83
g135
sg76
(lp150
g69
(g70
g71
NtRp151
(dp152
g74
(dp153
g82
I5
ssg83
g147
sg76
(lp154
g69
(g78
g71
NtRp155
(dp156
g74
(dp157
g82
I4
ssg83
Nsg76
(lp158
sbasbasbasbag69
(g85
g71
NtRp159
(dp160
g74
(dp161
sg83
g79
sg76
(lp162
g69
(g90
g71
NtRp163
(dp164
g74
(dp165
g94
g95
ssg83
g159
sg76
(lp166
S'body'
p167
asbag69
(g90
g71
NtRp168
(dp169
g74
(dp170
g101
g102
ssg83
g159
sg76
(lp171
S':'
asbag69
(g90
g71
NtRp172
(dp173
g74
(dp174
sg83
g159
sg76
(lp175
g69
(g70
g71
NtRp176
(dp177
g74
(dp178
g82
I5
ssg83
g172
sg76
(lp179
S'<cStringIO.StringO object at 0x7fb6f451f1b8>'
p180
asbasbasbag69
(g85
g71
NtRp181
(dp182
g74
(dp183
sg83
g79
sg76
(lp184
g69
(g90
g71
NtRp185
(dp186
g74
(dp187
g94
g95
ssg83
g181
sg76
(lp188
S'client'
p189
asbag69
(g90
g71
NtRp190
(dp191
g74
(dp192
g101
g102
ssg83
g181
sg76
(lp193
S':'
asbag69
(g90
g71
NtRp194
(dp195
g74
(dp196
sg83
g181
sg76
(lp197
g69
(g70
g71
NtRp198
(dp199
g74
(dp200
g82
I5
ssg83
g194
sg76
(lp201
S'127.0.0.1'
p202
asbasbasbag69
(g85
g71
NtRp203
(dp204
g74
(dp205
sg83
g79
sg76
(lp206
g69
(g90
g71
NtRp207
(dp208
g74
(dp209
g94
g95
ssg83
g203
sg76
(lp210
S'controller'
p211
asbag69
(g90
g71
NtRp212
(dp213
g74
(dp214
g101
g102
ssg83
g203
sg76
(lp215
S':'
asbag69
(g90
g71
NtRp216
(dp217
g74
(dp218
sg83
g203
sg76
(lp219
g69
(g70
g71
NtRp220
(dp221
g74
(dp222
g82
I5
ssg83
g216
sg76
(lp223
S'backlog'
p224
asbasbasbag69
(g85
g71
NtRp225
(dp226
g74
(dp227
sg83
g79
sg76
(lp228
g69
(g90
g71
NtRp229
(dp230
g74
(dp231
g94
g95
ssg83
g225
sg76
(lp232
S'cookies'
p233
asbag69
(g90
g71
NtRp234
(dp235
g74
(dp236
g101
g102
ssg83
g225
sg76
(lp237
S':'
asbag69
(g90
g71
NtRp238
(dp239
g74
(dp240
sg83
g225
sg76
(lp241
g69
(g70
g71
NtRp242
(dp243
g74
(dp244
g82
I5
ssg83
g238
sg76
(lp245
g69
(g78
g71
NtRp246
(dp247
g74
(dp248
g82
I4
ssg83
Nsg76
(lp249
g69
(g85
g71
NtRp250
(dp251
g74
(dp252
sg83
g246
sg76
(lp253
g69
(g90
g71
NtRp254
(dp255
g74
(dp256
g94
g95
ssg83
g250
sg76
(lp257
S'session_id_admin'
p258
asbag69
(g90
g71
NtRp259
(dp260
g74
(dp261
g101
g102
ssg83
g250
sg76
(lp262
S':'
asbag69
(g90
g71
NtRp263
(dp264
g74
(dp265
sg83
g250
sg76
(lp266
g69
(g70
g71
NtRp267
(dp268
g74
(dp269
g82
I4
ssg83
g263
sg76
(lp270
g69
(g78
g71
NtRp271
(dp272
g74
(dp273
g82
I3
ssg83
Nsg76
(lp274
g69
(g85
g71
NtRp275
(dp276
g74
(dp277
sg83
g271
sg76
(lp278
g69
(g90
g71
NtRp279
(dp280
g74
(dp281
g94
g95
ssg83
g275
sg76
(lp282
S'comment'
p283
asbag69
(g90
g71
NtRp284
(dp285
g74
(dp286
g101
g102
ssg83
g275
sg76
(lp287
S':'
asbag69
(g90
g71
NtRp288
(dp289
g74
(dp290
sg83
g275
sg76
(lp291
g69
(g70
g71
NtRp292
(dp293
g74
(dp294
g82
I3
ssg83
g288
sg76
(lp295
S''
asbasbasbag69
(g85
g71
NtRp296
(dp297
g74
(dp298
sg83
g271
sg76
(lp299
g69
(g90
g71
NtRp300
(dp301
g74
(dp302
g94
g95
ssg83
g296
sg76
(lp303
S'domain'
p304
asbag69
(g90
g71
NtRp305
(dp306
g74
(dp307
g101
g102
ssg83
g296
sg76
(lp308
S':'
asbag69
(g90
g71
NtRp309
(dp310
g74
(dp311
sg83
g296
sg76
(lp312
g69
(g70
g71
NtRp313
(dp314
g74
(dp315
g82
I3
ssg83
g309
sg76
(lp316
S''
asbasbasbag69
(g85
g71
NtRp317
(dp318
g74
(dp319
sg83
g271
sg76
(lp320
g69
(g90
g71
NtRp321
(dp322
g74
(dp323
g94
g95
ssg83
g317
sg76
(lp324
S'expires'
p325
asbag69
(g90
g71
NtRp326
(dp327
g74
(dp328
g101
g102
ssg83
g317
sg76
(lp329
S':'
asbag69
(g90
g71
NtRp330
(dp331
g74
(dp332
sg83
g317
sg76
(lp333
g69
(g70
g71
NtRp334
(dp335
g74
(dp336
g82
I3
ssg83
g330
sg76
(lp337
S''
asbasbasbag69
(g85
g71
NtRp338
(dp339
g74
(dp340
sg83
g271
sg76
(lp341
g69
(g90
g71
NtRp342
(dp343
g74
(dp344
g94
g95
ssg83
g338
sg76
(lp345
S'httponly'
p346
asbag69
(g90
g71
NtRp347
(dp348
g74
(dp349
g101
g102
ssg83
g338
sg76
(lp350
S':'
asbag69
(g90
g71
NtRp351
(dp352
g74
(dp353
sg83
g338
sg76
(lp354
g69
(g70
g71
NtRp355
(dp356
g74
(dp357
g82
I3
ssg83
g351
sg76
(lp358
S''
asbasbasbag69
(g85
g71
NtRp359
(dp360
g74
(dp361
sg83
g271
sg76
(lp362
g69
(g90
g71
NtRp363
(dp364
g74
(dp365
g94
g95
ssg83
g359
sg76
(lp366
S'max-age'
p367
asbag69
(g90
g71
NtRp368
(dp369
g74
(dp370
g101
g102
ssg83
g359
sg76
(lp371
S':'
asbag69
(g90
g71
NtRp372
(dp373
g74
(dp374
sg83
g359
sg76
(lp375
g69
(g70
g71
NtRp376
(dp377
g74
(dp378
g82
I3
ssg83
g372
sg76
(lp379
S''
asbasbasbag69
(g85
g71
NtRp380
(dp381
g74
(dp382
sg83
g271
sg76
(lp383
g69
(g90
g71
NtRp384
(dp385
g74
(dp386
g94
g95
ssg83
g380
sg76
(lp387
S'path'
p388
asbag69
(g90
g71
NtRp389
(dp390
g74
(dp391
g101
g102
ssg83
g380
sg76
(lp392
S':'
asbag69
(g90
g71
NtRp393
(dp394
g74
(dp395
sg83
g380
sg76
(lp396
g69
(g70
g71
NtRp397
(dp398
g74
(dp399
g82
I3
ssg83
g393
sg76
(lp400
S''
asbasbasbag69
(g85
g71
NtRp401
(dp402
g74
(dp403
sg83
g271
sg76
(lp404
g69
(g90
g71
NtRp405
(dp406
g74
(dp407
g94
g95
ssg83
g401
sg76
(lp408
S'secure'
p409
asbag69
(g90
g71
NtRp410
(dp411
g74
(dp412
g101
g102
ssg83
g401
sg76
(lp413
S':'
asbag69
(g90
g71
NtRp414
(dp415
g74
(dp416
sg83
g401
sg76
(lp417
g69
(g70
g71
NtRp418
(dp419
g74
(dp420
g82
I3
ssg83
g414
sg76
(lp421
S''
asbasbasbag69
(g85
g71
NtRp422
(dp423
g74
(dp424
sg83
g271
sg76
(lp425
g69
(g90
g71
NtRp426
(dp427
g74
(dp428
g94
g95
ssg83
g422
sg76
(lp429
S'version'
p430
asbag69
(g90
g71
NtRp431
(dp432
g74
(dp433
g101
g102
ssg83
g422
sg76
(lp434
S':'
asbag69
(g90
g71
NtRp435
(dp436
g74
(dp437
sg83
g422
sg76
(lp438
g69
(g70
g71
NtRp439
(dp440
g74
(dp441
g82
I3
ssg83
g435
sg76
(lp442
S''
asbasbasbasbasbasbasbag69
(g85
g71
NtRp443
(dp444
g74
(dp445
sg83
g246
sg76
(lp446
g69
(g90
g71
NtRp447
(dp448
g74
(dp449
g94
g95
ssg83
g443
sg76
(lp450
S'session_id_mywiki'
p451
asbag69
(g90
g71
NtRp452
(dp453
g74
(dp454
g101
g102
ssg83
g443
sg76
(lp455
S':'
asbag69
(g90
g71
NtRp456
(dp457
g74
(dp458
sg83
g443
sg76
(lp459
g69
(g70
g71
NtRp460
(dp461
g74
(dp462
g82
I4
ssg83
g456
sg76
(lp463
g69
(g78
g71
NtRp464
(dp465
g74
(dp466
g82
I3
ssg83
Nsg76
(lp467
g69
(g85
g71
NtRp468
(dp469
g74
(dp470
sg83
g464
sg76
(lp471
g69
(g90
g71
NtRp472
(dp473
g74
(dp474
g94
g95
ssg83
g468
sg76
(lp475
g283
asbag69
(g90
g71
NtRp476
(dp477
g74
(dp478
g101
g102
ssg83
g468
sg76
(lp479
S':'
asbag69
(g90
g71
NtRp480
(dp481
g74
(dp482
sg83
g468
sg76
(lp483
g69
(g70
g71
NtRp484
(dp485
g74
(dp486
g82
I3
ssg83
g480
sg76
(lp487
S''
asbasbasbag69
(g85
g71
NtRp488
(dp489
g74
(dp490
sg83
g464
sg76
(lp491
g69
(g90
g71
NtRp492
(dp493
g74
(dp494
g94
g95
ssg83
g488
sg76
(lp495
g304
asbag69
(g90
g71
NtRp496
(dp497
g74
(dp498
g101
g102
ssg83
g488
sg76
(lp499
S':'
asbag69
(g90
g71
NtRp500
(dp501
g74
(dp502
sg83
g488
sg76
(lp503
g69
(g70
g71
NtRp504
(dp505
g74
(dp506
g82
I3
ssg83
g500
sg76
(lp507
S''
asbasbasbag69
(g85
g71
NtRp508
(dp509
g74
(dp510
sg83
g464
sg76
(lp511
g69
(g90
g71
NtRp512
(dp513
g74
(dp514
g94
g95
ssg83
g508
sg76
(lp515
g325
asbag69
(g90
g71
NtRp516
(dp517
g74
(dp518
g101
g102
ssg83
g508
sg76
(lp519
S':'
asbag69
(g90
g71
NtRp520
(dp521
g74
(dp522
sg83
g508
sg76
(lp523
g69
(g70
g71
NtRp524
(dp525
g74
(dp526
g82
I3
ssg83
g520
sg76
(lp527
S''
asbasbasbag69
(g85
g71
NtRp528
(dp529
g74
(dp530
sg83
g464
sg76
(lp531
g69
(g90
g71
NtRp532
(dp533
g74
(dp534
g94
g95
ssg83
g528
sg76
(lp535
g346
asbag69
(g90
g71
NtRp536
(dp537
g74
(dp538
g101
g102
ssg83
g528
sg76
(lp539
S':'
asbag69
(g90
g71
NtRp540
(dp541
g74
(dp542
sg83
g528
sg76
(lp543
g69
(g70
g71
NtRp544
(dp545
g74
(dp546
g82
I3
ssg83
g540
sg76
(lp547
S''
asbasbasbag69
(g85
g71
NtRp548
(dp549
g74
(dp550
sg83
g464
sg76
(lp551
g69
(g90
g71
NtRp552
(dp553
g74
(dp554
g94
g95
ssg83
g548
sg76
(lp555
g367
asbag69
(g90
g71
NtRp556
(dp557
g74
(dp558
g101
g102
ssg83
g548
sg76
(lp559
S':'
asbag69
(g90
g71
NtRp560
(dp561
g74
(dp562
sg83
g548
sg76
(lp563
g69
(g70
g71
NtRp564
(dp565
g74
(dp566
g82
I3
ssg83
g560
sg76
(lp567
S''
asbasbasbag69
(g85
g71
NtRp568
(dp569
g74
(dp570
sg83
g464
sg76
(lp571
g69
(g90
g71
NtRp572
(dp573
g74
(dp574
g94
g95
ssg83
g568
sg76
(lp575
g388
asbag69
(g90
g71
NtRp576
(dp577
g74
(dp578
g101
g102
ssg83
g568
sg76
(lp579
S':'
asbag69
(g90
g71
NtRp580
(dp581
g74
(dp582
sg83
g568
sg76
(lp583
g69
(g70
g71
NtRp584
(dp585
g74
(dp586
g82
I3
ssg83
g580
sg76
(lp587
S''
asbasbasbag69
(g85
g71
NtRp588
(dp589
g74
(dp590
sg83
g464
sg76
(lp591
g69
(g90
g71
NtRp592
(dp593
g74
(dp594
g94
g95
ssg83
g588
sg76
(lp595
g409
asbag69
(g90
g71
NtRp596
(dp597
g74
(dp598
g101
g102
ssg83
g588
sg76
(lp599
S':'
asbag69
(g90
g71
NtRp600
(dp601
g74
(dp602
sg83
g588
sg76
(lp603
g69
(g70
g71
NtRp604
(dp605
g74
(dp606
g82
I3
ssg83
g600
sg76
(lp607
S''
asbasbasbag69
(g85
g71
NtRp608
(dp609
g74
(dp610
sg83
g464
sg76
(lp611
g69
(g90
g71
NtRp612
(dp613
g74
(dp614
g94
g95
ssg83
g608
sg76
(lp615
g430
asbag69
(g90
g71
NtRp616
(dp617
g74
(dp618
g101
g102
ssg83
g608
sg76
(lp619
S':'
asbag69
(g90
g71
NtRp620
(dp621
g74
(dp622
sg83
g608
sg76
(lp623
g69
(g70
g71
NtRp624
(dp625
g74
(dp626
g82
I3
ssg83
g620
sg76
(lp627
S''
asbasbasbasbasbasbasbag69
(g85
g71
NtRp628
(dp629
g74
(dp630
sg83
g246
sg76
(lp631
g69
(g90
g71
NtRp632
(dp633
g74
(dp634
g94
g95
ssg83
g628
sg76
(lp635
S'session_id_scrum_web_application'
p636
asbag69
(g90
g71
NtRp637
(dp638
g74
(dp639
g101
g102
ssg83
g628
sg76
(lp640
S':'
asbag69
(g90
g71
NtRp641
(dp642
g74
(dp643
sg83
g628
sg76
(lp644
g69
(g70
g71
NtRp645
(dp646
g74
(dp647
g82
I4
ssg83
g641
sg76
(lp648
g69
(g78
g71
NtRp649
(dp650
g74
(dp651
g82
I3
ssg83
Nsg76
(lp652
g69
(g85
g71
NtRp653
(dp654
g74
(dp655
sg83
g649
sg76
(lp656
g69
(g90
g71
NtRp657
(dp658
g74
(dp659
g94
g95
ssg83
g653
sg76
(lp660
g283
asbag69
(g90
g71
NtRp661
(dp662
g74
(dp663
g101
g102
ssg83
g653
sg76
(lp664
S':'
asbag69
(g90
g71
NtRp665
(dp666
g74
(dp667
sg83
g653
sg76
(lp668
g69
(g70
g71
NtRp669
(dp670
g74
(dp671
g82
I3
ssg83
g665
sg76
(lp672
S''
asbasbasbag69
(g85
g71
NtRp673
(dp674
g74
(dp675
sg83
g649
sg76
(lp676
g69
(g90
g71
NtRp677
(dp678
g74
(dp679
g94
g95
ssg83
g673
sg76
(lp680
g304
asbag69
(g90
g71
NtRp681
(dp682
g74
(dp683
g101
g102
ssg83
g673
sg76
(lp684
S':'
asbag69
(g90
g71
NtRp685
(dp686
g74
(dp687
sg83
g673
sg76
(lp688
g69
(g70
g71
NtRp689
(dp690
g74
(dp691
g82
I3
ssg83
g685
sg76
(lp692
S''
asbasbasbag69
(g85
g71
NtRp693
(dp694
g74
(dp695
sg83
g649
sg76
(lp696
g69
(g90
g71
NtRp697
(dp698
g74
(dp699
g94
g95
ssg83
g693
sg76
(lp700
g325
asbag69
(g90
g71
NtRp701
(dp702
g74
(dp703
g101
g102
ssg83
g693
sg76
(lp704
S':'
asbag69
(g90
g71
NtRp705
(dp706
g74
(dp707
sg83
g693
sg76
(lp708
g69
(g70
g71
NtRp709
(dp710
g74
(dp711
g82
I3
ssg83
g705
sg76
(lp712
S''
asbasbasbag69
(g85
g71
NtRp713
(dp714
g74
(dp715
sg83
g649
sg76
(lp716
g69
(g90
g71
NtRp717
(dp718
g74
(dp719
g94
g95
ssg83
g713
sg76
(lp720
g346
asbag69
(g90
g71
NtRp721
(dp722
g74
(dp723
g101
g102
ssg83
g713
sg76
(lp724
S':'
asbag69
(g90
g71
NtRp725
(dp726
g74
(dp727
sg83
g713
sg76
(lp728
g69
(g70
g71
NtRp729
(dp730
g74
(dp731
g82
I3
ssg83
g725
sg76
(lp732
S''
asbasbasbag69
(g85
g71
NtRp733
(dp734
g74
(dp735
sg83
g649
sg76
(lp736
g69
(g90
g71
NtRp737
(dp738
g74
(dp739
g94
g95
ssg83
g733
sg76
(lp740
g367
asbag69
(g90
g71
NtRp741
(dp742
g74
(dp743
g101
g102
ssg83
g733
sg76
(lp744
S':'
asbag69
(g90
g71
NtRp745
(dp746
g74
(dp747
sg83
g733
sg76
(lp748
g69
(g70
g71
NtRp749
(dp750
g74
(dp751
g82
I3
ssg83
g745
sg76
(lp752
S''
asbasbasbag69
(g85
g71
NtRp753
(dp754
g74
(dp755
sg83
g649
sg76
(lp756
g69
(g90
g71
NtRp757
(dp758
g74
(dp759
g94
g95
ssg83
g753
sg76
(lp760
g388
asbag69
(g90
g71
NtRp761
(dp762
g74
(dp763
g101
g102
ssg83
g753
sg76
(lp764
S':'
asbag69
(g90
g71
NtRp765
(dp766
g74
(dp767
sg83
g753
sg76
(lp768
g69
(g70
g71
NtRp769
(dp770
g74
(dp771
g82
I3
ssg83
g765
sg76
(lp772
S''
asbasbasbag69
(g85
g71
NtRp773
(dp774
g74
(dp775
sg83
g649
sg76
(lp776
g69
(g90
g71
NtRp777
(dp778
g74
(dp779
g94
g95
ssg83
g773
sg76
(lp780
g409
asbag69
(g90
g71
NtRp781
(dp782
g74
(dp783
g101
g102
ssg83
g773
sg76
(lp784
S':'
asbag69
(g90
g71
NtRp785
(dp786
g74
(dp787
sg83
g773
sg76
(lp788
g69
(g70
g71
NtRp789
(dp790
g74
(dp791
g82
I3
ssg83
g785
sg76
(lp792
S''
asbasbasbag69
(g85
g71
NtRp793
(dp794
g74
(dp795
sg83
g649
sg76
(lp796
g69
(g90
g71
NtRp797
(dp798
g74
(dp799
g94
g95
ssg83
g793
sg76
(lp800
g430
asbag69
(g90
g71
NtRp801
(dp802
g74
(dp803
g101
g102
ssg83
g793
sg76
(lp804
S':'
asbag69
(g90
g71
NtRp805
(dp806
g74
(dp807
sg83
g793
sg76
(lp808
g69
(g70
g71
NtRp809
(dp810
g74
(dp811
g82
I3
ssg83
g805
sg76
(lp812
S''
asbasbasbasbasbasbasbag69
(g85
g71
NtRp813
(dp814
g74
(dp815
sg83
g246
sg76
(lp816
g69
(g90
g71
NtRp817
(dp818
g74
(dp819
g94
g95
ssg83
g813
sg76
(lp820
S'session_id_welcome'
p821
asbag69
(g90
g71
NtRp822
(dp823
g74
(dp824
g101
g102
ssg83
g813
sg76
(lp825
S':'
asbag69
(g90
g71
NtRp826
(dp827
g74
(dp828
sg83
g813
sg76
(lp829
g69
(g70
g71
NtRp830
(dp831
g74
(dp832
g82
I4
ssg83
g826
sg76
(lp833
g69
(g78
g71
NtRp834
(dp835
g74
(dp836
g82
I3
ssg83
Nsg76
(lp837
g69
(g85
g71
NtRp838
(dp839
g74
(dp840
sg83
g834
sg76
(lp841
g69
(g90
g71
NtRp842
(dp843
g74
(dp844
g94
g95
ssg83
g838
sg76
(lp845
g283
asbag69
(g90
g71
NtRp846
(dp847
g74
(dp848
g101
g102
ssg83
g838
sg76
(lp849
S':'
asbag69
(g90
g71
NtRp850
(dp851
g74
(dp852
sg83
g838
sg76
(lp853
g69
(g70
g71
NtRp854
(dp855
g74
(dp856
g82
I3
ssg83
g850
sg76
(lp857
S''
asbasbasbag69
(g85
g71
NtRp858
(dp859
g74
(dp860
sg83
g834
sg76
(lp861
g69
(g90
g71
NtRp862
(dp863
g74
(dp864
g94
g95
ssg83
g858
sg76
(lp865
g304
asbag69
(g90
g71
NtRp866
(dp867
g74
(dp868
g101
g102
ssg83
g858
sg76
(lp869
S':'
asbag69
(g90
g71
NtRp870
(dp871
g74
(dp872
sg83
g858
sg76
(lp873
g69
(g70
g71
NtRp874
(dp875
g74
(dp876
g82
I3
ssg83
g870
sg76
(lp877
S''
asbasbasbag69
(g85
g71
NtRp878
(dp879
g74
(dp880
sg83
g834
sg76
(lp881
g69
(g90
g71
NtRp882
(dp883
g74
(dp884
g94
g95
ssg83
g878
sg76
(lp885
g325
asbag69
(g90
g71
NtRp886
(dp887
g74
(dp888
g101
g102
ssg83
g878
sg76
(lp889
S':'
asbag69
(g90
g71
NtRp890
(dp891
g74
(dp892
sg83
g878
sg76
(lp893
g69
(g70
g71
NtRp894
(dp895
g74
(dp896
g82
I3
ssg83
g890
sg76
(lp897
S''
asbasbasbag69
(g85
g71
NtRp898
(dp899
g74
(dp900
sg83
g834
sg76
(lp901
g69
(g90
g71
NtRp902
(dp903
g74
(dp904
g94
g95
ssg83
g898
sg76
(lp905
g346
asbag69
(g90
g71
NtRp906
(dp907
g74
(dp908
g101
g102
ssg83
g898
sg76
(lp909
S':'
asbag69
(g90
g71
NtRp910
(dp911
g74
(dp912
sg83
g898
sg76
(lp913
g69
(g70
g71
NtRp914
(dp915
g74
(dp916
g82
I3
ssg83
g910
sg76
(lp917
S''
asbasbasbag69
(g85
g71
NtRp918
(dp919
g74
(dp920
sg83
g834
sg76
(lp921
g69
(g90
g71
NtRp922
(dp923
g74
(dp924
g94
g95
ssg83
g918
sg76
(lp925
g367
asbag69
(g90
g71
NtRp926
(dp927
g74
(dp928
g101
g102
ssg83
g918
sg76
(lp929
S':'
asbag69
(g90
g71
NtRp930
(dp931
g74
(dp932
sg83
g918
sg76
(lp933
g69
(g70
g71
NtRp934
(dp935
g74
(dp936
g82
I3
ssg83
g930
sg76
(lp937
S''
asbasbasbag69
(g85
g71
NtRp938
(dp939
g74
(dp940
sg83
g834
sg76
(lp941
g69
(g90
g71
NtRp942
(dp943
g74
(dp944
g94
g95
ssg83
g938
sg76
(lp945
g388
asbag69
(g90
g71
NtRp946
(dp947
g74
(dp948
g101
g102
ssg83
g938
sg76
(lp949
S':'
asbag69
(g90
g71
NtRp950
(dp951
g74
(dp952
sg83
g938
sg76
(lp953
g69
(g70
g71
NtRp954
(dp955
g74
(dp956
g82
I3
ssg83
g950
sg76
(lp957
S''
asbasbasbag69
(g85
g71
NtRp958
(dp959
g74
(dp960
sg83
g834
sg76
(lp961
g69
(g90
g71
NtRp962
(dp963
g74
(dp964
g94
g95
ssg83
g958
sg76
(lp965
g409
asbag69
(g90
g71
NtRp966
(dp967
g74
(dp968
g101
g102
ssg83
g958
sg76
(lp969
S':'
asbag69
(g90
g71
NtRp970
(dp971
g74
(dp972
sg83
g958
sg76
(lp973
g69
(g70
g71
NtRp974
(dp975
g74
(dp976
g82
I3
ssg83
g970
sg76
(lp977
S''
asbasbasbag69
(g85
g71
NtRp978
(dp979
g74
(dp980
sg83
g834
sg76
(lp981
g69
(g90
g71
NtRp982
(dp983
g74
(dp984
g94
g95
ssg83
g978
sg76
(lp985
g430
asbag69
(g90
g71
NtRp986
(dp987
g74
(dp988
g101
g102
ssg83
g978
sg76
(lp989
S':'
asbag69
(g90
g71
NtRp990
(dp991
g74
(dp992
sg83
g978
sg76
(lp993
g69
(g70
g71
NtRp994
(dp995
g74
(dp996
g82
I3
ssg83
g990
sg76
(lp997
S''
asbasbasbasbasbasbasbasbasbasbasbag69
(g85
g71
NtRp998
(dp999
g74
(dp1000
sg83
g79
sg76
(lp1001
g69
(g90
g71
NtRp1002
(dp1003
g74
(dp1004
g94
g95
ssg83
g998
sg76
(lp1005
S'env'
p1006
asbag69
(g90
g71
NtRp1007
(dp1008
g74
(dp1009
g101
g102
ssg83
g998
sg76
(lp1010
S':'
asbag69
(g90
g71
NtRp1011
(dp1012
g74
(dp1013
sg83
g998
sg76
(lp1014
g69
(g70
g71
NtRp1015
(dp1016
g74
(dp1017
g82
I5
ssg83
g1011
sg76
(lp1018
g69
(g78
g71
NtRp1019
(dp1020
g74
(dp1021
g82
I4
ssg83
Nsg76
(lp1022
g69
(g85
g71
NtRp1023
(dp1024
g74
(dp1025
sg83
g1019
sg76
(lp1026
g69
(g90
g71
NtRp1027
(dp1028
g74
(dp1029
g94
g95
ssg83
g1023
sg76
(lp1030
S'app_folders'
p1031
asbag69
(g90
g71
NtRp1032
(dp1033
g74
(dp1034
g101
g102
ssg83
g1023
sg76
(lp1035
S':'
asbag69
(g90
g71
NtRp1036
(dp1037
g74
(dp1038
sg83
g1023
sg76
(lp1039
g69
(g70
g71
NtRp1040
(dp1041
g74
(dp1042
g82
I4
ssg83
g1036
sg76
(lp1043
S"set(['/home/michael/Projects/Scrum-Web-Application-by-web2py/web2py/applications/admin/', '/home/michael/Projects/Scrum-Web-Application-by-web2py/web2py/applications/Scrum_Web_Application/', '/home/michael/Projects/Scrum-Web-Application-by-web2py/web2py/applications/welcome/'])"
p1044
asbasbasbag69
(g85
g71
NtRp1045
(dp1046
g74
(dp1047
sg83
g1019
sg76
(lp1048
g69
(g90
g71
NtRp1049
(dp1050
g74
(dp1051
g94
g95
ssg83
g1045
sg76
(lp1052
S'applications_parent'
p1053
asbag69
(g90
g71
NtRp1054
(dp1055
g74
(dp1056
g101
g102
ssg83
g1045
sg76
(lp1057
S':'
asbag69
(g90
g71
NtRp1058
(dp1059
g74
(dp1060
sg83
g1045
sg76
(lp1061
g69
(g70
g71
NtRp1062
(dp1063
g74
(dp1064
g82
I4
ssg83
g1058
sg76
(lp1065
S'/home/michael/Projects/Scrum-Web-Application-by-web2py/web2py'
p1066
asbasbasbag69
(g85
g71
NtRp1067
(dp1068
g74
(dp1069
sg83
g1019
sg76
(lp1070
g69
(g90
g71
NtRp1071
(dp1072
g74
(dp1073
g94
g95
ssg83
g1067
sg76
(lp1074
S'cmd_args'
p1075
asbag69
(g90
g71
NtRp1076
(dp1077
g74
(dp1078
g101
g102
ssg83
g1067
sg76
(lp1079
S':'
asbag69
(g90
g71
NtRp1080
(dp1081
g74
(dp1082
sg83
g1067
sg76
(lp1083
g69
(g70
g71
NtRp1084
(dp1085
g74
(dp1086
g82
I4
ssg83
g1080
sg76
(lp1087
g69
(g78
g71
NtRp1088
(dp1089
g74
(dp1090
g82
I3
ssg83
Nsg76
(lp1091
sbasbasbasbag69
(g85
g71
NtRp1092
(dp1093
g74
(dp1094
sg83
g1019
sg76
(lp1095
g69
(g90
g71
NtRp1096
(dp1097
g74
(dp1098
g94
g95
ssg83
g1092
sg76
(lp1099
S'cmd_options'
p1100
asbag69
(g90
g71
NtRp1101
(dp1102
g74
(dp1103
g101
g102
ssg83
g1092
sg76
(lp1104
S':'
asbag69
(g90
g71
NtRp1105
(dp1106
g74
(dp1107
sg83
g1092
sg76
(lp1108
g69
(g70
g71
NtRp1109
(dp1110
g74
(dp1111
g82
I4
ssg83
g1105
sg76
(lp1112
S"<Values at 0x21fe7e8: {'verbose': False, 'ip': '127.0.0.1', 'shutdown_timeout': 5, 'taskbar': False, 'nocron': False, 'pid_filename': 'httpserver.pid', 'maxthreads': None, 'softcron': False, 'server_name': 'Lotus', 'bpython': False, 'nogui': False, 'port': 8000, 'extcron': False, 'debuglevel': 30, 'test': None, 'folder': '/home/michael/Projects/Scrum-Web-Application-by-web2py/web2py', 'config': '', 'import_models': False, 'winservice': '', 'shell': None, 'run': '', 'log_filename': 'httpserver.log', 'args': [''], 'socket_timeout': 5, 'ssl_ca_certificate': None, 'scheduler': None, 'profiler_filename': None, 'ssl_private_key': '', 'password': 'merlin', 'request_queue_size': 5, 'ssl_certificate': '', 'cronjob': False, 'numthreads': None, 'quiet': False, 'interfaces': None, 'minthreads': None, 'timeout': 10, 'plain': False, 'nobanner': False}>"
p1113
asbasbasbag69
(g85
g71
NtRp1114
(dp1115
g74
(dp1116
sg83
g1019
sg76
(lp1117
g69
(g90
g71
NtRp1118
(dp1119
g74
(dp1120
g94
g95
ssg83
g1114
sg76
(lp1121
S'db_sessions'
p1122
asbag69
(g90
g71
NtRp1123
(dp1124
g74
(dp1125
g101
g102
ssg83
g1114
sg76
(lp1126
S':'
asbag69
(g90
g71
NtRp1127
(dp1128
g74
(dp1129
sg83
g1114
sg76
(lp1130
g69
(g70
g71
NtRp1131
(dp1132
g74
(dp1133
g82
I4
ssg83
g1127
sg76
(lp1134
S'set([])'
p1135
asbasbasbag69
(g85
g71
NtRp1136
(dp1137
g74
(dp1138
sg83
g1019
sg76
(lp1139
g69
(g90
g71
NtRp1140
(dp1141
g74
(dp1142
g94
g95
ssg83
g1136
sg76
(lp1143
S'debugging'
p1144
asbag69
(g90
g71
NtRp1145
(dp1146
g74
(dp1147
g101
g102
ssg83
g1136
sg76
(lp1148
S':'
asbag69
(g90
g71
NtRp1149
(dp1150
g74
(dp1151
sg83
g1136
sg76
(lp1152
g69
(g70
g71
NtRp1153
(dp1154
g74
(dp1155
g82
I4
ssg83
g1149
sg76
(lp1156
g112
asbasbasbag69
(g85
g71
NtRp1157
(dp1158
g74
(dp1159
sg83
g1019
sg76
(lp1160
g69
(g90
g71
NtRp1161
(dp1162
g74
(dp1163
g94
g95
ssg83
g1157
sg76
(lp1164
S'gluon_parent'
p1165
asbag69
(g90
g71
NtRp1166
(dp1167
g74
(dp1168
g101
g102
ssg83
g1157
sg76
(lp1169
S':'
asbag69
(g90
g71
NtRp1170
(dp1171
g74
(dp1172
sg83
g1157
sg76
(lp1173
g69
(g70
g71
NtRp1174
(dp1175
g74
(dp1176
g82
I4
ssg83
g1170
sg76
(lp1177
S'/home/michael/Projects/Scrum-Web-Application-by-web2py/web2py'
p1178
asbasbasbag69
(g85
g71
NtRp1179
(dp1180
g74
(dp1181
sg83
g1019
sg76
(lp1182
g69
(g90
g71
NtRp1183
(dp1184
g74
(dp1185
g94
g95
ssg83
g1179
sg76
(lp1186
S'http_accept'
p1187
asbag69
(g90
g71
NtRp1188
(dp1189
g74
(dp1190
g101
g102
ssg83
g1179
sg76
(lp1191
S':'
asbag69
(g90
g71
NtRp1192
(dp1193
g74
(dp1194
sg83
g1179
sg76
(lp1195
g69
(g70
g71
NtRp1196
(dp1197
g74
(dp1198
g82
I4
ssg83
g1192
sg76
(lp1199
S'text/html,application/xhtml+xml,application/xml;q=0.9,*/*;q=0.8'
p1200
asbasbasbag69
(g85
g71
NtRp1201
(dp1202
g74
(dp1203
sg83
g1019
sg76
(lp1204
g69
(g90
g71
NtRp1205
(dp1206
g74
(dp1207
g94
g95
ssg83
g1201
sg76
(lp1208
S'http_accept_charset'
p1209
asbag69
(g90
g71
NtRp1210
(dp1211
g74
(dp1212
g101
g102
ssg83
g1201
sg76
(lp1213
S':'
asbag69
(g90
g71
NtRp1214
(dp1215
g74
(dp1216
sg83
g1201
sg76
(lp1217
g69
(g70
g71
NtRp1218
(dp1219
g74
(dp1220
g82
I4
ssg83
g1214
sg76
(lp1221
S'ISO-8859-1,utf-8;q=0.7,*;q=0.3'
p1222
asbasbasbag69
(g85
g71
NtRp1223
(dp1224
g74
(dp1225
sg83
g1019
sg76
(lp1226
g69
(g90
g71
NtRp1227
(dp1228
g74
(dp1229
g94
g95
ssg83
g1223
sg76
(lp1230
S'http_accept_encoding'
p1231
asbag69
(g90
g71
NtRp1232
(dp1233
g74
(dp1234
g101
g102
ssg83
g1223
sg76
(lp1235
S':'
asbag69
(g90
g71
NtRp1236
(dp1237
g74
(dp1238
sg83
g1223
sg76
(lp1239
g69
(g70
g71
NtRp1240
(dp1241
g74
(dp1242
g82
I4
ssg83
g1236
sg76
(lp1243
S'gzip,deflate,sdch'
p1244
asbasbasbag69
(g85
g71
NtRp1245
(dp1246
g74
(dp1247
sg83
g1019
sg76
(lp1248
g69
(g90
g71
NtRp1249
(dp1250
g74
(dp1251
g94
g95
ssg83
g1245
sg76
(lp1252
S'http_accept_language'
p1253
asbag69
(g90
g71
NtRp1254
(dp1255
g74
(dp1256
g101
g102
ssg83
g1245
sg76
(lp1257
S':'
asbag69
(g90
g71
NtRp1258
(dp1259
g74
(dp1260
sg83
g1245
sg76
(lp1261
g69
(g70
g71
NtRp1262
(dp1263
g74
(dp1264
g82
I4
ssg83
g1258
sg76
(lp1265
S'en-US,en;q=0.8'
p1266
asbasbasbag69
(g85
g71
NtRp1267
(dp1268
g74
(dp1269
sg83
g1019
sg76
(lp1270
g69
(g90
g71
NtRp1271
(dp1272
g74
(dp1273
g94
g95
ssg83
g1267
sg76
(lp1274
S'http_connection'
p1275
asbag69
(g90
g71
NtRp1276
(dp1277
g74
(dp1278
g101
g102
ssg83
g1267
sg76
(lp1279
S':'
asbag69
(g90
g71
NtRp1280
(dp1281
g74
(dp1282
sg83
g1267
sg76
(lp1283
g69
(g70
g71
NtRp1284
(dp1285
g74
(dp1286
g82
I4
ssg83
g1280
sg76
(lp1287
S'keep-alive'
p1288
asbasbasbag69
(g85
g71
NtRp1289
(dp1290
g74
(dp1291
sg83
g1019
sg76
(lp1292
g69
(g90
g71
NtRp1293
(dp1294
g74
(dp1295
g94
g95
ssg83
g1289
sg76
(lp1296
S'http_cookie'
p1297
asbag69
(g90
g71
NtRp1298
(dp1299
g74
(dp1300
g101
g102
ssg83
g1289
sg76
(lp1301
S':'
asbag69
(g90
g71
NtRp1302
(dp1303
g74
(dp1304
sg83
g1289
sg76
(lp1305
g69
(g70
g71
NtRp1306
(dp1307
g74
(dp1308
g82
I4
ssg83
g1302
sg76
(lp1309
S'session_id_mywiki=127.0.0.1-484c01c4-fe0f-4faa-89ec-11df56e37f7c; session_id_welcome=127.0.0.1-2d010996-18a9-468c-957d-4417eb4e8201; session_id_admin=127.0.0.1-90a7f6e0-3a24-49d4-98d8-0886fb9c9b4a; session_id_scrum_web_application=127.0.0.1-249863be-67e2-47ba-9b85-a03cb2e9e8ef'
p1310
asbasbasbag69
(g85
g71
NtRp1311
(dp1312
g74
(dp1313
sg83
g1019
sg76
(lp1314
g69
(g90
g71
NtRp1315
(dp1316
g74
(dp1317
g94
g95
ssg83
g1311
sg76
(lp1318
S'http_host'
p1319
asbag69
(g90
g71
NtRp1320
(dp1321
g74
(dp1322
g101
g102
ssg83
g1311
sg76
(lp1323
S':'
asbag69
(g90
g71
NtRp1324
(dp1325
g74
(dp1326
sg83
g1311
sg76
(lp1327
g69
(g70
g71
NtRp1328
(dp1329
g74
(dp1330
g82
I4
ssg83
g1324
sg76
(lp1331
S'127.0.0.1:8000'
p1332
asbasbasbag69
(g85
g71
NtRp1333
(dp1334
g74
(dp1335
sg83
g1019
sg76
(lp1336
g69
(g90
g71
NtRp1337
(dp1338
g74
(dp1339
g94
g95
ssg83
g1333
sg76
(lp1340
S'http_user_agent'
p1341
asbag69
(g90
g71
NtRp1342
(dp1343
g74
(dp1344
g101
g102
ssg83
g1333
sg76
(lp1345
S':'
asbag69
(g90
g71
NtRp1346
(dp1347
g74
(dp1348
sg83
g1333
sg76
(lp1349
g69
(g70
g71
NtRp1350
(dp1351
g74
(dp1352
g82
I4
ssg83
g1346
sg76
(lp1353
S'Mozilla/5.0 (X11; Linux x86_64) AppleWebKit/535.19 (KHTML, like Gecko) Ubuntu/12.04 Chromium/18.0.1025.151 Chrome/18.0.1025.151 Safari/535.19'
p1354
asbasbasbag69
(g85
g71
NtRp1355
(dp1356
g74
(dp1357
sg83
g1019
sg76
(lp1358
g69
(g90
g71
NtRp1359
(dp1360
g74
(dp1361
g94
g95
ssg83
g1355
sg76
(lp1362
S'is_jython'
p1363
asbag69
(g90
g71
NtRp1364
(dp1365
g74
(dp1366
g101
g102
ssg83
g1355
sg76
(lp1367
S':'
asbag69
(g90
g71
NtRp1368
(dp1369
g74
(dp1370
sg83
g1355
sg76
(lp1371
g69
(g70
g71
NtRp1372
(dp1373
g74
(dp1374
g82
I4
ssg83
g1368
sg76
(lp1375
g112
asbasbasbag69
(g85
g71
NtRp1376
(dp1377
g74
(dp1378
sg83
g1019
sg76
(lp1379
g69
(g90
g71
NtRp1380
(dp1381
g74
(dp1382
g94
g95
ssg83
g1376
sg76
(lp1383
S'is_pypy'
p1384
asbag69
(g90
g71
NtRp1385
(dp1386
g74
(dp1387
g101
g102
ssg83
g1376
sg76
(lp1388
S':'
asbag69
(g90
g71
NtRp1389
(dp1390
g74
(dp1391
sg83
g1376
sg76
(lp1392
g69
(g70
g71
NtRp1393
(dp1394
g74
(dp1395
g82
I4
ssg83
g1389
sg76
(lp1396
g112
asbasbasbag69
(g85
g71
NtRp1397
(dp1398
g74
(dp1399
sg83
g1019
sg76
(lp1400
g69
(g90
g71
NtRp1401
(dp1402
g74
(dp1403
g94
g95
ssg83
g1397
sg76
(lp1404
S'path_info'
p1405
asbag69
(g90
g71
NtRp1406
(dp1407
g74
(dp1408
g101
g102
ssg83
g1397
sg76
(lp1409
S':'
asbag69
(g90
g71
NtRp1410
(dp1411
g74
(dp1412
sg83
g1397
sg76
(lp1413
g69
(g70
g71
NtRp1414
(dp1415
g74
(dp1416
g82
I4
ssg83
g1410
sg76
(lp1417
S'/Scrum_Web_Application/backlog/'
p1418
asbasbasbag69
(g85
g71
NtRp1419
(dp1420
g74
(dp1421
sg83
g1019
sg76
(lp1422
g69
(g90
g71
NtRp1423
(dp1424
g74
(dp1425
g94
g95
ssg83
g1419
sg76
(lp1426
S'query_string'
p1427
asbag69
(g90
g71
NtRp1428
(dp1429
g74
(dp1430
g101
g102
ssg83
g1419
sg76
(lp1431
S':'
asbag69
(g90
g71
NtRp1432
(dp1433
g74
(dp1434
sg83
g1419
sg76
(lp1435
g69
(g70
g71
NtRp1436
(dp1437
g74
(dp1438
g82
I4
ssg83
g1432
sg76
(lp1439
S''
asbasbasbag69
(g85
g71
NtRp1440
(dp1441
g74
(dp1442
sg83
g1019
sg76
(lp1443
g69
(g90
g71
NtRp1444
(dp1445
g74
(dp1446
g94
g95
ssg83
g1440
sg76
(lp1447
S'remote_addr'
p1448
asbag69
(g90
g71
NtRp1449
(dp1450
g74
(dp1451
g101
g102
ssg83
g1440
sg76
(lp1452
S':'
asbag69
(g90
g71
NtRp1453
(dp1454
g74
(dp1455
sg83
g1440
sg76
(lp1456
g69
(g70
g71
NtRp1457
(dp1458
g74
(dp1459
g82
I4
ssg83
g1453
sg76
(lp1460
g202
asbasbasbag69
(g85
g71
NtRp1461
(dp1462
g74
(dp1463
sg83
g1019
sg76
(lp1464
g69
(g90
g71
NtRp1465
(dp1466
g74
(dp1467
g94
g95
ssg83
g1461
sg76
(lp1468
S'remote_port'
p1469
asbag69
(g90
g71
NtRp1470
(dp1471
g74
(dp1472
g101
g102
ssg83
g1461
sg76
(lp1473
S':'
asbag69
(g90
g71
NtRp1474
(dp1475
g74
(dp1476
sg83
g1461
sg76
(lp1477
g69
(g70
g71
NtRp1478
(dp1479
g74
(dp1480
g82
I4
ssg83
g1474
sg76
(lp1481
S'58730'
p1482
asbasbasbag69
(g85
g71
NtRp1483
(dp1484
g74
(dp1485
sg83
g1019
sg76
(lp1486
g69
(g90
g71
NtRp1487
(dp1488
g74
(dp1489
g94
g95
ssg83
g1483
sg76
(lp1490
S'request_method'
p1491
asbag69
(g90
g71
NtRp1492
(dp1493
g74
(dp1494
g101
g102
ssg83
g1483
sg76
(lp1495
S':'
asbag69
(g90
g71
NtRp1496
(dp1497
g74
(dp1498
sg83
g1483
sg76
(lp1499
g69
(g70
g71
NtRp1500
(dp1501
g74
(dp1502
g82
I4
ssg83
g1496
sg76
(lp1503
S'GET'
p1504
asbasbasbag69
(g85
g71
NtRp1505
(dp1506
g74
(dp1507
sg83
g1019
sg76
(lp1508
g69
(g90
g71
NtRp1509
(dp1510
g74
(dp1511
g94
g95
ssg83
g1505
sg76
(lp1512
S'script_name'
p1513
asbag69
(g90
g71
NtRp1514
(dp1515
g74
(dp1516
g101
g102
ssg83
g1505
sg76
(lp1517
S':'
asbag69
(g90
g71
NtRp1518
(dp1519
g74
(dp1520
sg83
g1505
sg76
(lp1521
g69
(g70
g71
NtRp1522
(dp1523
g74
(dp1524
g82
I4
ssg83
g1518
sg76
(lp1525
S''
asbasbasbag69
(g85
g71
NtRp1526
(dp1527
g74
(dp1528
sg83
g1019
sg76
(lp1529
g69
(g90
g71
NtRp1530
(dp1531
g74
(dp1532
g94
g95
ssg83
g1526
sg76
(lp1533
S'server_name'
p1534
asbag69
(g90
g71
NtRp1535
(dp1536
g74
(dp1537
g101
g102
ssg83
g1526
sg76
(lp1538
S':'
asbag69
(g90
g71
NtRp1539
(dp1540
g74
(dp1541
sg83
g1526
sg76
(lp1542
g69
(g70
g71
NtRp1543
(dp1544
g74
(dp1545
g82
I4
ssg83
g1539
sg76
(lp1546
S'Lotus'
p1547
asbasbasbag69
(g85
g71
NtRp1548
(dp1549
g74
(dp1550
sg83
g1019
sg76
(lp1551
g69
(g90
g71
NtRp1552
(dp1553
g74
(dp1554
g94
g95
ssg83
g1548
sg76
(lp1555
S'server_port'
p1556
asbag69
(g90
g71
NtRp1557
(dp1558
g74
(dp1559
g101
g102
ssg83
g1548
sg76
(lp1560
S':'
asbag69
(g90
g71
NtRp1561
(dp1562
g74
(dp1563
sg83
g1548
sg76
(lp1564
g69
(g70
g71
NtRp1565
(dp1566
g74
(dp1567
g82
I4
ssg83
g1561
sg76
(lp1568
S'8000'
p1569
asbasbasbag69
(g85
g71
NtRp1570
(dp1571
g74
(dp1572
sg83
g1019
sg76
(lp1573
g69
(g90
g71
NtRp1574
(dp1575
g74
(dp1576
g94
g95
ssg83
g1570
sg76
(lp1577
S'server_protocol'
p1578
asbag69
(g90
g71
NtRp1579
(dp1580
g74
(dp1581
g101
g102
ssg83
g1570
sg76
(lp1582
S':'
asbag69
(g90
g71
NtRp1583
(dp1584
g74
(dp1585
sg83
g1570
sg76
(lp1586
g69
(g70
g71
NtRp1587
(dp1588
g74
(dp1589
g82
I4
ssg83
g1583
sg76
(lp1590
S'HTTP/1.1'
p1591
asbasbasbag69
(g85
g71
NtRp1592
(dp1593
g74
(dp1594
sg83
g1019
sg76
(lp1595
g69
(g90
g71
NtRp1596
(dp1597
g74
(dp1598
g94
g95
ssg83
g1592
sg76
(lp1599
S'server_software'
p1600
asbag69
(g90
g71
NtRp1601
(dp1602
g74
(dp1603
g101
g102
ssg83
g1592
sg76
(lp1604
S':'
asbag69
(g90
g71
NtRp1605
(dp1606
g74
(dp1607
sg83
g1592
sg76
(lp1608
g69
(g70
g71
NtRp1609
(dp1610
g74
(dp1611
g82
I4
ssg83
g1605
sg76
(lp1612
S'Rocket 1.2.4'
p1613
asbasbasbag69
(g85
g71
NtRp1614
(dp1615
g74
(dp1616
sg83
g1019
sg76
(lp1617
g69
(g90
g71
NtRp1618
(dp1619
g74
(dp1620
g94
g95
ssg83
g1614
sg76
(lp1621
S'web2py_crontype'
p1622
asbag69
(g90
g71
NtRp1623
(dp1624
g74
(dp1625
g101
g102
ssg83
g1614
sg76
(lp1626
S':'
asbag69
(g90
g71
NtRp1627
(dp1628
g74
(dp1629
sg83
g1614
sg76
(lp1630
g69
(g70
g71
NtRp1631
(dp1632
g74
(dp1633
g82
I4
ssg83
g1627
sg76
(lp1634
S'hard'
p1635
asbasbasbag69
(g85
g71
NtRp1636
(dp1637
g74
(dp1638
sg83
g1019
sg76
(lp1639
g69
(g90
g71
NtRp1640
(dp1641
g74
(dp1642
g94
g95
ssg83
g1636
sg76
(lp1643
S'web2py_path'
p1644
asbag69
(g90
g71
NtRp1645
(dp1646
g74
(dp1647
g101
g102
ssg83
g1636
sg76
(lp1648
S':'
asbag69
(g90
g71
NtRp1649
(dp1650
g74
(dp1651
sg83
g1636
sg76
(lp1652
g69
(g70
g71
NtRp1653
(dp1654
g74
(dp1655
g82
I4
ssg83
g1649
sg76
(lp1656
g1066
asbasbasbag69
(g85
g71
NtRp1657
(dp1658
g74
(dp1659
sg83
g1019
sg76
(lp1660
g69
(g90
g71
NtRp1661
(dp1662
g74
(dp1663
g94
g95
ssg83
g1657
sg76
(lp1664
S'web2py_version'
p1665
asbag69
(g90
g71
NtRp1666
(dp1667
g74
(dp1668
g101
g102
ssg83
g1657
sg76
(lp1669
S':'
asbag69
(g90
g71
NtRp1670
(dp1671
g74
(dp1672
sg83
g1657
sg76
(lp1673
g69
(g70
g71
NtRp1674
(dp1675
g74
(dp1676
g82
I4
ssg83
g1670
sg76
(lp1677
g69
(g78
g71
NtRp1678
(dp1679
g74
(dp1680
g82
I3
ssg83
Nsg76
(lp1681
g69
(g85
g71
NtRp1682
(dp1683
g74
(dp1684
sg83
g1678
sg76
(lp1685
g69
(g90
g71
NtRp1686
(dp1687
g74
(dp1688
sg83
g1682
sg76
(lp1689
g69
(g70
g71
NtRp1690
(dp1691
g74
(dp1692
g82
I3
ssg83
g1686
sg76
(lp1693
S'1'
asbasbasbag69
(g85
g71
NtRp1694
(dp1695
g74
(dp1696
sg83
g1678
sg76
(lp1697
g69
(g90
g71
NtRp1698
(dp1699
g74
(dp1700
sg83
g1694
sg76
(lp1701
g69
(g70
g71
NtRp1702
(dp1703
g74
(dp1704
g82
I3
ssg83
g1698
sg76
(lp1705
S'99'
p1706
asbasbasbag69
(g85
g71
NtRp1707
(dp1708
g74
(dp1709
sg83
g1678
sg76
(lp1710
g69
(g90
g71
NtRp1711
(dp1712
g74
(dp1713
sg83
g1707
sg76
(lp1714
g69
(g70
g71
NtRp1715
(dp1716
g74
(dp1717
g82
I3
ssg83
g1711
sg76
(lp1718
S'7'
asbasbasbag69
(g85
g71
NtRp1719
(dp1720
g74
(dp1721
sg83
g1678
sg76
(lp1722
g69
(g90
g71
NtRp1723
(dp1724
g74
(dp1725
sg83
g1719
sg76
(lp1726
g69
(g70
g71
NtRp1727
(dp1728
g74
(dp1729
g82
I3
ssg83
g1723
sg76
(lp1730
S'datetime.datetime(2012, 3, 4, 22, 12, 8)'
p1731
asbasbasbag69
(g85
g71
NtRp1732
(dp1733
g74
(dp1734
sg83
g1678
sg76
(lp1735
g69
(g90
g71
NtRp1736
(dp1737
g74
(dp1738
sg83
g1732
sg76
(lp1739
g69
(g70
g71
NtRp1740
(dp1741
g74
(dp1742
g82
I3
ssg83
g1736
sg76
(lp1743
S'stable'
p1744
asbasbasbasbasbasbasbag69
(g85
g71
NtRp1745
(dp1746
g74
(dp1747
sg83
g1019
sg76
(lp1748
g69
(g90
g71
NtRp1749
(dp1750
g74
(dp1751
g94
g95
ssg83
g1745
sg76
(lp1752
S'wsgi_errors'
p1753
asbag69
(g90
g71
NtRp1754
(dp1755
g74
(dp1756
g101
g102
ssg83
g1745
sg76
(lp1757
S':'
asbag69
(g90
g71
NtRp1758
(dp1759
g74
(dp1760
sg83
g1745
sg76
(lp1761
g69
(g70
g71
NtRp1762
(dp1763
g74
(dp1764
g82
I4
ssg83
g1758
sg76
(lp1765
S"<open file '<stderr>', mode 'w' at 0x7fb71aec9270>"
p1766
asbasbasbag69
(g85
g71
NtRp1767
(dp1768
g74
(dp1769
sg83
g1019
sg76
(lp1770
g69
(g90
g71
NtRp1771
(dp1772
g74
(dp1773
g94
g95
ssg83
g1767
sg76
(lp1774
S'wsgi_file_wrapper'
p1775
asbag69
(g90
g71
NtRp1776
(dp1777
g74
(dp1778
g101
g102
ssg83
g1767
sg76
(lp1779
S':'
asbag69
(g90
g71
NtRp1780
(dp1781
g74
(dp1782
sg83
g1767
sg76
(lp1783
g69
(g70
g71
NtRp1784
(dp1785
g74
(dp1786
g82
I4
ssg83
g1780
sg76
(lp1787
S'<class wsgiref.util.FileWrapper at 0x20db940>'
p1788
asbasbasbag69
(g85
g71
NtRp1789
(dp1790
g74
(dp1791
sg83
g1019
sg76
(lp1792
g69
(g90
g71
NtRp1793
(dp1794
g74
(dp1795
g94
g95
ssg83
g1789
sg76
(lp1796
S'wsgi_input'
p1797
asbag69
(g90
g71
NtRp1798
(dp1799
g74
(dp1800
g101
g102
ssg83
g1789
sg76
(lp1801
S':'
asbag69
(g90
g71
NtRp1802
(dp1803
g74
(dp1804
sg83
g1789
sg76
(lp1805
g69
(g70
g71
NtRp1806
(dp1807
g74
(dp1808
g82
I4
ssg83
g1802
sg76
(lp1809
S'<socket._fileobject object at 0x7fb6f451d950>'
p1810
asbasbasbag69
(g85
g71
NtRp1811
(dp1812
g74
(dp1813
sg83
g1019
sg76
(lp1814
g69
(g90
g71
NtRp1815
(dp1816
g74
(dp1817
g94
g95
ssg83
g1811
sg76
(lp1818
S'wsgi_multiprocess'
p1819
asbag69
(g90
g71
NtRp1820
(dp1821
g74
(dp1822
g101
g102
ssg83
g1811
sg76
(lp1823
S':'
asbag69
(g90
g71
NtRp1824
(dp1825
g74
(dp1826
sg83
g1811
sg76
(lp1827
g69
(g70
g71
NtRp1828
(dp1829
g74
(dp1830
g82
I4
ssg83
g1824
sg76
(lp1831
g112
asbasbasbag69
(g85
g71
NtRp1832
(dp1833
g74
(dp1834
sg83
g1019
sg76
(lp1835
g69
(g90
g71
NtRp1836
(dp1837
g74
(dp1838
g94
g95
ssg83
g1832
sg76
(lp1839
S'wsgi_multithread'
p1840
asbag69
(g90
g71
NtRp1841
(dp1842
g74
(dp1843
g101
g102
ssg83
g1832
sg76
(lp1844
S':'
asbag69
(g90
g71
NtRp1845
(dp1846
g74
(dp1847
sg83
g1832
sg76
(lp1848
g69
(g70
g71
NtRp1849
(dp1850
g74
(dp1851
g82
I4
ssg83
g1845
sg76
(lp1852
S'True'
p1853
asbasbasbag69
(g85
g71
NtRp1854
(dp1855
g74
(dp1856
sg83
g1019
sg76
(lp1857
g69
(g90
g71
NtRp1858
(dp1859
g74
(dp1860
g94
g95
ssg83
g1854
sg76
(lp1861
S'wsgi_run_once'
p1862
asbag69
(g90
g71
NtRp1863
(dp1864
g74
(dp1865
g101
g102
ssg83
g1854
sg76
(lp1866
S':'
asbag69
(g90
g71
NtRp1867
(dp1868
g74
(dp1869
sg83
g1854
sg76
(lp1870
g69
(g70
g71
NtRp1871
(dp1872
g74
(dp1873
g82
I4
ssg83
g1867
sg76
(lp1874
g112
asbasbasbag69
(g85
g71
NtRp1875
(dp1876
g74
(dp1877
sg83
g1019
sg76
(lp1878
g69
(g90
g71
NtRp1879
(dp1880
g74
(dp1881
g94
g95
ssg83
g1875
sg76
(lp1882
S'wsgi_url_scheme'
p1883
asbag69
(g90
g71
NtRp1884
(dp1885
g74
(dp1886
g101
g102
ssg83
g1875
sg76
(lp1887
S':'
asbag69
(g90
g71
NtRp1888
(dp1889
g74
(dp1890
sg83
g1875
sg76
(lp1891
g69
(g70
g71
NtRp1892
(dp1893
g74
(dp1894
g82
I4
ssg83
g1888
sg76
(lp1895
S'http'
p1896
asbasbasbag69
(g85
g71
NtRp1897
(dp1898
g74
(dp1899
sg83
g1019
sg76
(lp1900
g69
(g90
g71
NtRp1901
(dp1902
g74
(dp1903
g94
g95
ssg83
g1897
sg76
(lp1904
S'wsgi_version'
p1905
asbag69
(g90
g71
NtRp1906
(dp1907
g74
(dp1908
g101
g102
ssg83
g1897
sg76
(lp1909
S':'
asbag69
(g90
g71
NtRp1910
(dp1911
g74
(dp1912
sg83
g1897
sg76
(lp1913
g69
(g70
g71
NtRp1914
(dp1915
g74
(dp1916
g82
I4
ssg83
g1910
sg76
(lp1917
g69
(g78
g71
NtRp1918
(dp1919
g74
(dp1920
g82
I3
ssg83
Nsg76
(lp1921
g69
(g85
g71
NtRp1922
(dp1923
g74
(dp1924
sg83
g1918
sg76
(lp1925
g69
(g90
g71
NtRp1926
(dp1927
g74
(dp1928
sg83
g1922
sg76
(lp1929
g69
(g70
g71
NtRp1930
(dp1931
g74
(dp1932
g82
I3
ssg83
g1926
sg76
(lp1933
S'1'
asbasbasbag69
(g85
g71
NtRp1934
(dp1935
g74
(dp1936
sg83
g1918
sg76
(lp1937
g69
(g90
g71
NtRp1938
(dp1939
g74
(dp1940
sg83
g1934
sg76
(lp1941
g69
(g70
g71
NtRp1942
(dp1943
g74
(dp1944
g82
I3
ssg83
g1938
sg76
(lp1945
S'0'
asbasbasbasbasbasbasbasbasbasbasbag69
(g85
g71
NtRp1946
(dp1947
g74
(dp1948
sg83
g79
sg76
(lp1949
g69
(g90
g71
NtRp1950
(dp1951
g74
(dp1952
g94
g95
ssg83
g1946
sg76
(lp1953
S'extension'
p1954
asbag69
(g90
g71
NtRp1955
(dp1956
g74
(dp1957
g101
g102
ssg83
g1946
sg76
(lp1958
S':'
asbag69
(g90
g71
NtRp1959
(dp1960
g74
(dp1961
sg83
g1946
sg76
(lp1962
g69
(g70
g71
NtRp1963
(dp1964
g74
(dp1965
g82
I5
ssg83
g1959
sg76
(lp1966
S'html'
p1967
asbasbasbag69
(g85
g71
NtRp1968
(dp1969
g74
(dp1970
sg83
g79
sg76
(lp1971
g69
(g90
g71
NtRp1972
(dp1973
g74
(dp1974
g94
g95
ssg83
g1968
sg76
(lp1975
S'folder'
p1976
asbag69
(g90
g71
NtRp1977
(dp1978
g74
(dp1979
g101
g102
ssg83
g1968
sg76
(lp1980
S':'
asbag69
(g90
g71
NtRp1981
(dp1982
g74
(dp1983
sg83
g1968
sg76
(lp1984
g69
(g70
g71
NtRp1985
(dp1986
g74
(dp1987
g82
I5
ssg83
g1981
sg76
(lp1988
S'/home/michael/Projects/Scrum-Web-Application-by-web2py/web2py/applications/Scrum_Web_Application/'
p1989
asbasbasbag69
(g85
g71
NtRp1990
(dp1991
g74
(dp1992
sg83
g79
sg76
(lp1993
g69
(g90
g71
NtRp1994
(dp1995
g74
(dp1996
g94
g95
ssg83
g1990
sg76
(lp1997
S'function'
p1998
asbag69
(g90
g71
NtRp1999
(dp2000
g74
(dp2001
g101
g102
ssg83
g1990
sg76
(lp2002
S':'
asbag69
(g90
g71
NtRp2003
(dp2004
g74
(dp2005
sg83
g1990
sg76
(lp2006
g69
(g70
g71
NtRp2007
(dp2008
g74
(dp2009
g82
I5
ssg83
g2003
sg76
(lp2010
S'index'
p2011
asbasbasbag69
(g85
g71
NtRp2012
(dp2013
g74
(dp2014
sg83
g79
sg76
(lp2015
g69
(g90
g71
NtRp2016
(dp2017
g74
(dp2018
g94
g95
ssg83
g2012
sg76
(lp2019
S'get_vars'
p2020
asbag69
(g90
g71
NtRp2021
(dp2022
g74
(dp2023
g101
g102
ssg83
g2012
sg76
(lp2024
S':'
asbag69
(g90
g71
NtRp2025
(dp2026
g74
(dp2027
sg83
g2012
sg76
(lp2028
g69
(g70
g71
NtRp2029
(dp2030
g74
(dp2031
g82
I5
ssg83
g2025
sg76
(lp2032
g69
(g78
g71
NtRp2033
(dp2034
g74
(dp2035
g82
I4
ssg83
Nsg76
(lp2036
sbasbasbasbag69
(g85
g71
NtRp2037
(dp2038
g74
(dp2039
sg83
g79
sg76
(lp2040
g69
(g90
g71
NtRp2041
(dp2042
g74
(dp2043
g94
g95
ssg83
g2037
sg76
(lp2044
S'global_settings'
p2045
asbag69
(g90
g71
NtRp2046
(dp2047
g74
(dp2048
g101
g102
ssg83
g2037
sg76
(lp2049
S':'
asbag69
(g90
g71
NtRp2050
(dp2051
g74
(dp2052
sg83
g2037
sg76
(lp2053
g69
(g70
g71
NtRp2054
(dp2055
g74
(dp2056
g82
I5
ssg83
g2050
sg76
(lp2057
g69
(g78
g71
NtRp2058
(dp2059
g74
(dp2060
g82
I4
ssg83
Nsg76
(lp2061
g69
(g85
g71
NtRp2062
(dp2063
g74
(dp2064
sg83
g2058
sg76
(lp2065
g69
(g90
g71
NtRp2066
(dp2067
g74
(dp2068
g94
g95
ssg83
g2062
sg76
(lp2069
g1031
asbag69
(g90
g71
NtRp2070
(dp2071
g74
(dp2072
g101
g102
ssg83
g2062
sg76
(lp2073
S':'
asbag69
(g90
g71
NtRp2074
(dp2075
g74
(dp2076
sg83
g2062
sg76
(lp2077
g69
(g70
g71
NtRp2078
(dp2079
g74
(dp2080
g82
I4
ssg83
g2074
sg76
(lp2081
S"set(['/home/michael/Projects/Scrum-Web-Application-by-web2py/web2py/applications/admin/', '/home/michael/Projects/Scrum-Web-Application-by-web2py/web2py/applications/Scrum_Web_Application/', '/home/michael/Projects/Scrum-Web-Application-by-web2py/web2py/applications/welcome/'])"
p2082
asbasbasbag69
(g85
g71
NtRp2083
(dp2084
g74
(dp2085
sg83
g2058
sg76
(lp2086
g69
(g90
g71
NtRp2087
(dp2088
g74
(dp2089
g94
g95
ssg83
g2083
sg76
(lp2090
g1053
asbag69
(g90
g71
NtRp2091
(dp2092
g74
(dp2093
g101
g102
ssg83
g2083
sg76
(lp2094
S':'
asbag69
(g90
g71
NtRp2095
(dp2096
g74
(dp2097
sg83
g2083
sg76
(lp2098
g69
(g70
g71
NtRp2099
(dp2100
g74
(dp2101
g82
I4
ssg83
g2095
sg76
(lp2102
g1066
asbasbasbag69
(g85
g71
NtRp2103
(dp2104
g74
(dp2105
sg83
g2058
sg76
(lp2106
g69
(g90
g71
NtRp2107
(dp2108
g74
(dp2109
g94
g95
ssg83
g2103
sg76
(lp2110
g1075
asbag69
(g90
g71
NtRp2111
(dp2112
g74
(dp2113
g101
g102
ssg83
g2103
sg76
(lp2114
S':'
asbag69
(g90
g71
NtRp2115
(dp2116
g74
(dp2117
sg83
g2103
sg76
(lp2118
g69
(g70
g71
NtRp2119
(dp2120
g74
(dp2121
g82
I4
ssg83
g2115
sg76
(lp2122
g69
(g78
g71
NtRp2123
(dp2124
g74
(dp2125
g82
I3
ssg83
Nsg76
(lp2126
sbasbasbasbag69
(g85
g71
NtRp2127
(dp2128
g74
(dp2129
sg83
g2058
sg76
(lp2130
g69
(g90
g71
NtRp2131
(dp2132
g74
(dp2133
g94
g95
ssg83
g2127
sg76
(lp2134
g1100
asbag69
(g90
g71
NtRp2135
(dp2136
g74
(dp2137
g101
g102
ssg83
g2127
sg76
(lp2138
S':'
asbag69
(g90
g71
NtRp2139
(dp2140
g74
(dp2141
sg83
g2127
sg76
(lp2142
g69
(g70
g71
NtRp2143
(dp2144
g74
(dp2145
g82
I4
ssg83
g2139
sg76
(lp2146
S"<Values at 0x21fe7e8: {'verbose': False, 'ip': '127.0.0.1', 'shutdown_timeout': 5, 'taskbar': False, 'nocron': False, 'pid_filename': 'httpserver.pid', 'maxthreads': None, 'softcron': False, 'server_name': 'Lotus', 'bpython': False, 'nogui': False, 'port': 8000, 'extcron': False, 'debuglevel': 30, 'test': None, 'folder': '/home/michael/Projects/Scrum-Web-Application-by-web2py/web2py', 'config': '', 'import_models': False, 'winservice': '', 'shell': None, 'run': '', 'log_filename': 'httpserver.log', 'args': [''], 'socket_timeout': 5, 'ssl_ca_certificate': None, 'scheduler': None, 'profiler_filename': None, 'ssl_private_key': '', 'password': 'merlin', 'request_queue_size': 5, 'ssl_certificate': '', 'cronjob': False, 'numthreads': None, 'quiet': False, 'interfaces': None, 'minthreads': None, 'timeout': 10, 'plain': False, 'nobanner': False}>"
p2147
asbasbasbag69
(g85
g71
NtRp2148
(dp2149
g74
(dp2150
sg83
g2058
sg76
(lp2151
g69
(g90
g71
NtRp2152
(dp2153
g74
(dp2154
g94
g95
ssg83
g2148
sg76
(lp2155
g1122
asbag69
(g90
g71
NtRp2156
(dp2157
g74
(dp2158
g101
g102
ssg83
g2148
sg76
(lp2159
S':'
asbag69
(g90
g71
NtRp2160
(dp2161
g74
(dp2162
sg83
g2148
sg76
(lp2163
g69
(g70
g71
NtRp2164
(dp2165
g74
(dp2166
g82
I4
ssg83
g2160
sg76
(lp2167
S'set([])'
p2168
asbasbasbag69
(g85
g71
NtRp2169
(dp2170
g74
(dp2171
sg83
g2058
sg76
(lp2172
g69
(g90
g71
NtRp2173
(dp2174
g74
(dp2175
g94
g95
ssg83
g2169
sg76
(lp2176
g1144
asbag69
(g90
g71
NtRp2177
(dp2178
g74
(dp2179
g101
g102
ssg83
g2169
sg76
(lp2180
S':'
asbag69
(g90
g71
NtRp2181
(dp2182
g74
(dp2183
sg83
g2169
sg76
(lp2184
g69
(g70
g71
NtRp2185
(dp2186
g74
(dp2187
g82
I4
ssg83
g2181
sg76
(lp2188
g112
asbasbasbag69
(g85
g71
NtRp2189
(dp2190
g74
(dp2191
sg83
g2058
sg76
(lp2192
g69
(g90
g71
NtRp2193
(dp2194
g74
(dp2195
g94
g95
ssg83
g2189
sg76
(lp2196
g1165
asbag69
(g90
g71
NtRp2197
(dp2198
g74
(dp2199
g101
g102
ssg83
g2189
sg76
(lp2200
S':'
asbag69
(g90
g71
NtRp2201
(dp2202
g74
(dp2203
sg83
g2189
sg76
(lp2204
g69
(g70
g71
NtRp2205
(dp2206
g74
(dp2207
g82
I4
ssg83
g2201
sg76
(lp2208
g1178
asbasbasbag69
(g85
g71
NtRp2209
(dp2210
g74
(dp2211
sg83
g2058
sg76
(lp2212
g69
(g90
g71
NtRp2213
(dp2214
g74
(dp2215
g94
g95
ssg83
g2209
sg76
(lp2216
g1363
asbag69
(g90
g71
NtRp2217
(dp2218
g74
(dp2219
g101
g102
ssg83
g2209
sg76
(lp2220
S':'
asbag69
(g90
g71
NtRp2221
(dp2222
g74
(dp2223
sg83
g2209
sg76
(lp2224
g69
(g70
g71
NtRp2225
(dp2226
g74
(dp2227
g82
I4
ssg83
g2221
sg76
(lp2228
g112
asbasbasbag69
(g85
g71
NtRp2229
(dp2230
g74
(dp2231
sg83
g2058
sg76
(lp2232
g69
(g90
g71
NtRp2233
(dp2234
g74
(dp2235
g94
g95
ssg83
g2229
sg76
(lp2236
g1384
asbag69
(g90
g71
NtRp2237
(dp2238
g74
(dp2239
g101
g102
ssg83
g2229
sg76
(lp2240
S':'
asbag69
(g90
g71
NtRp2241
(dp2242
g74
(dp2243
sg83
g2229
sg76
(lp2244
g69
(g70
g71
NtRp2245
(dp2246
g74
(dp2247
g82
I4
ssg83
g2241
sg76
(lp2248
g112
asbasbasbag69
(g85
g71
NtRp2249
(dp2250
g74
(dp2251
sg83
g2058
sg76
(lp2252
g69
(g90
g71
NtRp2253
(dp2254
g74
(dp2255
g94
g95
ssg83
g2249
sg76
(lp2256
g1622
asbag69
(g90
g71
NtRp2257
(dp2258
g74
(dp2259
g101
g102
ssg83
g2249
sg76
(lp2260
S':'
asbag69
(g90
g71
NtRp2261
(dp2262
g74
(dp2263
sg83
g2249
sg76
(lp2264
g69
(g70
g71
NtRp2265
(dp2266
g74
(dp2267
g82
I4
ssg83
g2261
sg76
(lp2268
g1635
asbasbasbag69
(g85
g71
NtRp2269
(dp2270
g74
(dp2271
sg83
g2058
sg76
(lp2272
g69
(g90
g71
NtRp2273
(dp2274
g74
(dp2275
g94
g95
ssg83
g2269
sg76
(lp2276
g1665
asbag69
(g90
g71
NtRp2277
(dp2278
g74
(dp2279
g101
g102
ssg83
g2269
sg76
(lp2280
S':'
asbag69
(g90
g71
NtRp2281
(dp2282
g74
(dp2283
sg83
g2269
sg76
(lp2284
g69
(g70
g71
NtRp2285
(dp2286
g74
(dp2287
g82
I4
ssg83
g2281
sg76
(lp2288
g69
(g78
g71
NtRp2289
(dp2290
g74
(dp2291
g82
I3
ssg83
Nsg76
(lp2292
g69
(g85
g71
NtRp2293
(dp2294
g74
(dp2295
sg83
g2289
sg76
(lp2296
g69
(g90
g71
NtRp2297
(dp2298
g74
(dp2299
sg83
g2293
sg76
(lp2300
g69
(g70
g71
NtRp2301
(dp2302
g74
(dp2303
g82
I3
ssg83
g2297
sg76
(lp2304
S'1'
asbasbasbag69
(g85
g71
NtRp2305
(dp2306
g74
(dp2307
sg83
g2289
sg76
(lp2308
g69
(g90
g71
NtRp2309
(dp2310
g74
(dp2311
sg83
g2305
sg76
(lp2312
g69
(g70
g71
NtRp2313
(dp2314
g74
(dp2315
g82
I3
ssg83
g2309
sg76
(lp2316
S'99'
p2317
asbasbasbag69
(g85
g71
NtRp2318
(dp2319
g74
(dp2320
sg83
g2289
sg76
(lp2321
g69
(g90
g71
NtRp2322
(dp2323
g74
(dp2324
sg83
g2318
sg76
(lp2325
g69
(g70
g71
NtRp2326
(dp2327
g74
(dp2328
g82
I3
ssg83
g2322
sg76
(lp2329
S'7'
asbasbasbag69
(g85
g71
NtRp2330
(dp2331
g74
(dp2332
sg83
g2289
sg76
(lp2333
g69
(g90
g71
NtRp2334
(dp2335
g74
(dp2336
sg83
g2330
sg76
(lp2337
g69
(g70
g71
NtRp2338
(dp2339
g74
(dp2340
g82
I3
ssg83
g2334
sg76
(lp2341
S'datetime.datetime(2012, 3, 4, 22, 12, 8)'
p2342
asbasbasbag69
(g85
g71
NtRp2343
(dp2344
g74
(dp2345
sg83
g2289
sg76
(lp2346
g69
(g90
g71
NtRp2347
(dp2348
g74
(dp2349
sg83
g2343
sg76
(lp2350
g69
(g70
g71
NtRp2351
(dp2352
g74
(dp2353
g82
I3
ssg83
g2347
sg76
(lp2354
g1744
asbasbasbasbasbasbasbasbasbasbasbag69
(g85
g71
NtRp2355
(dp2356
g74
(dp2357
sg83
g79
sg76
(lp2358
g69
(g90
g71
NtRp2359
(dp2360
g74
(dp2361
g94
g95
ssg83
g2355
sg76
(lp2362
S'is_https'
p2363
asbag69
(g90
g71
NtRp2364
(dp2365
g74
(dp2366
g101
g102
ssg83
g2355
sg76
(lp2367
S':'
asbag69
(g90
g71
NtRp2368
(dp2369
g74
(dp2370
sg83
g2355
sg76
(lp2371
g69
(g70
g71
NtRp2372
(dp2373
g74
(dp2374
g82
I5
ssg83
g2368
sg76
(lp2375
g112
asbasbasbag69
(g85
g71
NtRp2376
(dp2377
g74
(dp2378
sg83
g79
sg76
(lp2379
g69
(g90
g71
NtRp2380
(dp2381
g74
(dp2382
g94
g95
ssg83
g2376
sg76
(lp2383
S'is_local'
p2384
asbag69
(g90
g71
NtRp2385
(dp2386
g74
(dp2387
g101
g102
ssg83
g2376
sg76
(lp2388
S':'
asbag69
(g90
g71
NtRp2389
(dp2390
g74
(dp2391
sg83
g2376
sg76
(lp2392
g69
(g70
g71
NtRp2393
(dp2394
g74
(dp2395
g82
I5
ssg83
g2389
sg76
(lp2396
g1853
asbasbasbag69
(g85
g71
NtRp2397
(dp2398
g74
(dp2399
sg83
g79
sg76
(lp2400
g69
(g90
g71
NtRp2401
(dp2402
g74
(dp2403
g94
g95
ssg83
g2397
sg76
(lp2404
S'is_restful'
p2405
asbag69
(g90
g71
NtRp2406
(dp2407
g74
(dp2408
g101
g102
ssg83
g2397
sg76
(lp2409
S':'
asbag69
(g90
g71
NtRp2410
(dp2411
g74
(dp2412
sg83
g2397
sg76
(lp2413
g69
(g70
g71
NtRp2414
(dp2415
g74
(dp2416
g82
I5
ssg83
g2410
sg76
(lp2417
g112
asbasbasbag69
(g85
g71
NtRp2418
(dp2419
g74
(dp2420
sg83
g79
sg76
(lp2421
g69
(g90
g71
NtRp2422
(dp2423
g74
(dp2424
g94
g95
ssg83
g2418
sg76
(lp2425
S'now'
p2426
asbag69
(g90
g71
NtRp2427
(dp2428
g74
(dp2429
g101
g102
ssg83
g2418
sg76
(lp2430
S':'
asbag69
(g90
g71
NtRp2431
(dp2432
g74
(dp2433
sg83
g2418
sg76
(lp2434
g69
(g70
g71
NtRp2435
(dp2436
g74
(dp2437
g82
I5
ssg83
g2431
sg76
(lp2438
S'datetime.datetime(2012, 6, 27, 16, 22, 17, 147755)'
p2439
asbasbasbag69
(g85
g71
NtRp2440
(dp2441
g74
(dp2442
sg83
g79
sg76
(lp2443
g69
(g90
g71
NtRp2444
(dp2445
g74
(dp2446
g94
g95
ssg83
g2440
sg76
(lp2447
S'post_vars'
p2448
asbag69
(g90
g71
NtRp2449
(dp2450
g74
(dp2451
g101
g102
ssg83
g2440
sg76
(lp2452
S':'
asbag69
(g90
g71
NtRp2453
(dp2454
g74
(dp2455
sg83
g2440
sg76
(lp2456
g69
(g70
g71
NtRp2457
(dp2458
g74
(dp2459
g82
I5
ssg83
g2453
sg76
(lp2460
g69
(g78
g71
NtRp2461
(dp2462
g74
(dp2463
g82
I4
ssg83
Nsg76
(lp2464
sbasbasbasbag69
(g85
g71
NtRp2465
(dp2466
g74
(dp2467
sg83
g79
sg76
(lp2468
g69
(g90
g71
NtRp2469
(dp2470
g74
(dp2471
g94
g95
ssg83
g2465
sg76
(lp2472
S'url'
p2473
asbag69
(g90
g71
NtRp2474
(dp2475
g74
(dp2476
g101
g102
ssg83
g2465
sg76
(lp2477
S':'
asbag69
(g90
g71
NtRp2478
(dp2479
g74
(dp2480
sg83
g2465
sg76
(lp2481
g69
(g70
g71
NtRp2482
(dp2483
g74
(dp2484
g82
I5
ssg83
g2478
sg76
(lp2485
S'/Scrum_Web_Application/backlog/index'
p2486
asbasbasbag69
(g85
g71
NtRp2487
(dp2488
g74
(dp2489
sg83
g79
sg76
(lp2490
g69
(g90
g71
NtRp2491
(dp2492
g74
(dp2493
g94
g95
ssg83
g2487
sg76
(lp2494
S'utcnow'
p2495
asbag69
(g90
g71
NtRp2496
(dp2497
g74
(dp2498
g101
g102
ssg83
g2487
sg76
(lp2499
S':'
asbag69
(g90
g71
NtRp2500
(dp2501
g74
(dp2502
sg83
g2487
sg76
(lp2503
g69
(g70
g71
NtRp2504
(dp2505
g74
(dp2506
g82
I5
ssg83
g2500
sg76
(lp2507
S'datetime.datetime(2012, 6, 27, 8, 22, 17, 147787)'
p2508
asbasbasbag69
(g85
g71
NtRp2509
(dp2510
g74
(dp2511
sg83
g79
sg76
(lp2512
g69
(g90
g71
NtRp2513
(dp2514
g74
(dp2515
g94
g95
ssg83
g2509
sg76
(lp2516
S'uuid'
p2517
asbag69
(g90
g71
NtRp2518
(dp2519
g74
(dp2520
g101
g102
ssg83
g2509
sg76
(lp2521
S':'
asbag69
(g90
g71
NtRp2522
(dp2523
g74
(dp2524
sg83
g2509
sg76
(lp2525
g69
(g70
g71
NtRp2526
(dp2527
g74
(dp2528
g82
I5
ssg83
g2522
sg76
(lp2529
S'Scrum_Web_Application/127.0.0.1.2012-06-27.16-22-17.816270ca-3643-4383-bcf0-63cb9045626f'
p2530
asbasbasbag69
(g85
g71
NtRp2531
(dp2532
g74
(dp2533
sg83
g79
sg76
(lp2534
g69
(g90
g71
NtRp2535
(dp2536
g74
(dp2537
g94
g95
ssg83
g2531
sg76
(lp2538
S'vars'
p2539
asbag69
(g90
g71
NtRp2540
(dp2541
g74
(dp2542
g101
g102
ssg83
g2531
sg76
(lp2543
S':'
asbag69
(g90
g71
NtRp2544
(dp2545
g74
(dp2546
sg83
g2531
sg76
(lp2547
g69
(g70
g71
NtRp2548
(dp2549
g74
(dp2550
g82
I5
ssg83
g2544
sg76
(lp2551
g69
(g78
g71
NtRp2552
(dp2553
g74
(dp2554
g82
I4
ssg83
Nsg76
(lp2555
sbasbasbasbag69
(g85
g71
NtRp2556
(dp2557
g74
(dp2558
sg83
g79
sg76
(lp2559
g69
(g90
g71
NtRp2560
(dp2561
g74
(dp2562
g94
g95
ssg83
g2556
sg76
(lp2563
S'wsgi'
p2564
asbag69
(g90
g71
NtRp2565
(dp2566
g74
(dp2567
g101
g102
ssg83
g2556
sg76
(lp2568
S':'
asbag69
(g90
g71
NtRp2569
(dp2570
g74
(dp2571
sg83
g2556
sg76
(lp2572
g69
(g70
g71
NtRp2573
(dp2574
g74
(dp2575
g82
I5
ssg83
g2569
sg76
(lp2576
g69
(g78
g71
NtRp2577
(dp2578
g74
(dp2579
g82
I4
ssg83
Nsg76
(lp2580
g69
(g85
g71
NtRp2581
(dp2582
g74
(dp2583
sg83
g2577
sg76
(lp2584
g69
(g90
g71
NtRp2585
(dp2586
g74
(dp2587
g94
g95
ssg83
g2581
sg76
(lp2588
S'environ'
p2589
asbag69
(g90
g71
NtRp2590
(dp2591
g74
(dp2592
g101
g102
ssg83
g2581
sg76
(lp2593
S':'
asbag69
(g90
g71
NtRp2594
(dp2595
g74
(dp2596
sg83
g2581
sg76
(lp2597
g69
(g70
g71
NtRp2598
(dp2599
g74
(dp2600
g82
I4
ssg83
g2594
sg76
(lp2601
g69
(g78
g71
NtRp2602
(dp2603
g74
(dp2604
g82
I3
ssg83
Nsg76
(lp2605
g69
(g85
g71
NtRp2606
(dp2607
g74
(dp2608
sg83
g2602
sg76
(lp2609
g69
(g90
g71
NtRp2610
(dp2611
g74
(dp2612
g94
g95
ssg83
g2606
sg76
(lp2613
S'HTTP_ACCEPT'
p2614
asbag69
(g90
g71
NtRp2615
(dp2616
g74
(dp2617
g101
g102
ssg83
g2606
sg76
(lp2618
S':'
asbag69
(g90
g71
NtRp2619
(dp2620
g74
(dp2621
sg83
g2606
sg76
(lp2622
g69
(g70
g71
NtRp2623
(dp2624
g74
(dp2625
g82
I3
ssg83
g2619
sg76
(lp2626
g1200
asbasbasbag69
(g85
g71
NtRp2627
(dp2628
g74
(dp2629
sg83
g2602
sg76
(lp2630
g69
(g90
g71
NtRp2631
(dp2632
g74
(dp2633
g94
g95
ssg83
g2627
sg76
(lp2634
S'HTTP_ACCEPT_CHARSET'
p2635
asbag69
(g90
g71
NtRp2636
(dp2637
g74
(dp2638
g101
g102
ssg83
g2627
sg76
(lp2639
S':'
asbag69
(g90
g71
NtRp2640
(dp2641
g74
(dp2642
sg83
g2627
sg76
(lp2643
g69
(g70
g71
NtRp2644
(dp2645
g74
(dp2646
g82
I3
ssg83
g2640
sg76
(lp2647
g1222
asbasbasbag69
(g85
g71
NtRp2648
(dp2649
g74
(dp2650
sg83
g2602
sg76
(lp2651
g69
(g90
g71
NtRp2652
(dp2653
g74
(dp2654
g94
g95
ssg83
g2648
sg76
(lp2655
S'HTTP_ACCEPT_ENCODING'
p2656
asbag69
(g90
g71
NtRp2657
(dp2658
g74
(dp2659
g101
g102
ssg83
g2648
sg76
(lp2660
S':'
asbag69
(g90
g71
NtRp2661
(dp2662
g74
(dp2663
sg83
g2648
sg76
(lp2664
g69
(g70
g71
NtRp2665
(dp2666
g74
(dp2667
g82
I3
ssg83
g2661
sg76
(lp2668
g1244
asbasbasbag69
(g85
g71
NtRp2669
(dp2670
g74
(dp2671
sg83
g2602
sg76
(lp2672
g69
(g90
g71
NtRp2673
(dp2674
g74
(dp2675
g94
g95
ssg83
g2669
sg76
(lp2676
S'HTTP_ACCEPT_LANGUAGE'
p2677
asbag69
(g90
g71
NtRp2678
(dp2679
g74
(dp2680
g101
g102
ssg83
g2669
sg76
(lp2681
S':'
asbag69
(g90
g71
NtRp2682
(dp2683
g74
(dp2684
sg83
g2669
sg76
(lp2685
g69
(g70
g71
NtRp2686
(dp2687
g74
(dp2688
g82
I3
ssg83
g2682
sg76
(lp2689
g1266
asbasbasbag69
(g85
g71
NtRp2690
(dp2691
g74
(dp2692
sg83
g2602
sg76
(lp2693
g69
(g90
g71
NtRp2694
(dp2695
g74
(dp2696
g94
g95
ssg83
g2690
sg76
(lp2697
S'HTTP_CONNECTION'
p2698
asbag69
(g90
g71
NtRp2699
(dp2700
g74
(dp2701
g101
g102
ssg83
g2690
sg76
(lp2702
S':'
asbag69
(g90
g71
NtRp2703
(dp2704
g74
(dp2705
sg83
g2690
sg76
(lp2706
g69
(g70
g71
NtRp2707
(dp2708
g74
(dp2709
g82
I3
ssg83
g2703
sg76
(lp2710
g1288
asbasbasbag69
(g85
g71
NtRp2711
(dp2712
g74
(dp2713
sg83
g2602
sg76
(lp2714
g69
(g90
g71
NtRp2715
(dp2716
g74
(dp2717
g94
g95
ssg83
g2711
sg76
(lp2718
S'HTTP_COOKIE'
p2719
asbag69
(g90
g71
NtRp2720
(dp2721
g74
(dp2722
g101
g102
ssg83
g2711
sg76
(lp2723
S':'
asbag69
(g90
g71
NtRp2724
(dp2725
g74
(dp2726
sg83
g2711
sg76
(lp2727
g69
(g70
g71
NtRp2728
(dp2729
g74
(dp2730
g82
I3
ssg83
g2724
sg76
(lp2731
g1310
asbasbasbag69
(g85
g71
NtRp2732
(dp2733
g74
(dp2734
sg83
g2602
sg76
(lp2735
g69
(g90
g71
NtRp2736
(dp2737
g74
(dp2738
g94
g95
ssg83
g2732
sg76
(lp2739
S'HTTP_HOST'
p2740
asbag69
(g90
g71
NtRp2741
(dp2742
g74
(dp2743
g101
g102
ssg83
g2732
sg76
(lp2744
S':'
asbag69
(g90
g71
NtRp2745
(dp2746
g74
(dp2747
sg83
g2732
sg76
(lp2748
g69
(g70
g71
NtRp2749
(dp2750
g74
(dp2751
g82
I3
ssg83
g2745
sg76
(lp2752
g1332
asbasbasbag69
(g85
g71
NtRp2753
(dp2754
g74
(dp2755
sg83
g2602
sg76
(lp2756
g69
(g90
g71
NtRp2757
(dp2758
g74
(dp2759
g94
g95
ssg83
g2753
sg76
(lp2760
S'HTTP_USER_AGENT'
p2761
asbag69
(g90
g71
NtRp2762
(dp2763
g74
(dp2764
g101
g102
ssg83
g2753
sg76
(lp2765
S':'
asbag69
(g90
g71
NtRp2766
(dp2767
g74
(dp2768
sg83
g2753
sg76
(lp2769
g69
(g70
g71
NtRp2770
(dp2771
g74
(dp2772
g82
I3
ssg83
g2766
sg76
(lp2773
g1354
asbasbasbag69
(g85
g71
NtRp2774
(dp2775
g74
(dp2776
sg83
g2602
sg76
(lp2777
g69
(g90
g71
NtRp2778
(dp2779
g74
(dp2780
g94
g95
ssg83
g2774
sg76
(lp2781
S'PATH_INFO'
p2782
asbag69
(g90
g71
NtRp2783
(dp2784
g74
(dp2785
g101
g102
ssg83
g2774
sg76
(lp2786
S':'
asbag69
(g90
g71
NtRp2787
(dp2788
g74
(dp2789
sg83
g2774
sg76
(lp2790
g69
(g70
g71
NtRp2791
(dp2792
g74
(dp2793
g82
I3
ssg83
g2787
sg76
(lp2794
g1418
asbasbasbag69
(g85
g71
NtRp2795
(dp2796
g74
(dp2797
sg83
g2602
sg76
(lp2798
g69
(g90
g71
NtRp2799
(dp2800
g74
(dp2801
g94
g95
ssg83
g2795
sg76
(lp2802
S'QUERY_STRING'
p2803
asbag69
(g90
g71
NtRp2804
(dp2805
g74
(dp2806
g101
g102
ssg83
g2795
sg76
(lp2807
S':'
asbag69
(g90
g71
NtRp2808
(dp2809
g74
(dp2810
sg83
g2795
sg76
(lp2811
g69
(g70
g71
NtRp2812
(dp2813
g74
(dp2814
g82
I3
ssg83
g2808
sg76
(lp2815
S''
asbasbasbag69
(g85
g71
NtRp2816
(dp2817
g74
(dp2818
sg83
g2602
sg76
(lp2819
g69
(g90
g71
NtRp2820
(dp2821
g74
(dp2822
g94
g95
ssg83
g2816
sg76
(lp2823
S'REMOTE_ADDR'
p2824
asbag69
(g90
g71
NtRp2825
(dp2826
g74
(dp2827
g101
g102
ssg83
g2816
sg76
(lp2828
S':'
asbag69
(g90
g71
NtRp2829
(dp2830
g74
(dp2831
sg83
g2816
sg76
(lp2832
g69
(g70
g71
NtRp2833
(dp2834
g74
(dp2835
g82
I3
ssg83
g2829
sg76
(lp2836
g202
asbasbasbag69
(g85
g71
NtRp2837
(dp2838
g74
(dp2839
sg83
g2602
sg76
(lp2840
g69
(g90
g71
NtRp2841
(dp2842
g74
(dp2843
g94
g95
ssg83
g2837
sg76
(lp2844
S'REMOTE_PORT'
p2845
asbag69
(g90
g71
NtRp2846
(dp2847
g74
(dp2848
g101
g102
ssg83
g2837
sg76
(lp2849
S':'
asbag69
(g90
g71
NtRp2850
(dp2851
g74
(dp2852
sg83
g2837
sg76
(lp2853
g69
(g70
g71
NtRp2854
(dp2855
g74
(dp2856
g82
I3
ssg83
g2850
sg76
(lp2857
g1482
asbasbasbag69
(g85
g71
NtRp2858
(dp2859
g74
(dp2860
sg83
g2602
sg76
(lp2861
g69
(g90
g71
NtRp2862
(dp2863
g74
(dp2864
g94
g95
ssg83
g2858
sg76
(lp2865
S'REQUEST_METHOD'
p2866
asbag69
(g90
g71
NtRp2867
(dp2868
g74
(dp2869
g101
g102
ssg83
g2858
sg76
(lp2870
S':'
asbag69
(g90
g71
NtRp2871
(dp2872
g74
(dp2873
sg83
g2858
sg76
(lp2874
g69
(g70
g71
NtRp2875
(dp2876
g74
(dp2877
g82
I3
ssg83
g2871
sg76
(lp2878
g1504
asbasbasbag69
(g85
g71
NtRp2879
(dp2880
g74
(dp2881
sg83
g2602
sg76
(lp2882
g69
(g90
g71
NtRp2883
(dp2884
g74
(dp2885
g94
g95
ssg83
g2879
sg76
(lp2886
S'SCRIPT_NAME'
p2887
asbag69
(g90
g71
NtRp2888
(dp2889
g74
(dp2890
g101
g102
ssg83
g2879
sg76
(lp2891
S':'
asbag69
(g90
g71
NtRp2892
(dp2893
g74
(dp2894
sg83
g2879
sg76
(lp2895
g69
(g70
g71
NtRp2896
(dp2897
g74
(dp2898
g82
I3
ssg83
g2892
sg76
(lp2899
S''
asbasbasbag69
(g85
g71
NtRp2900
(dp2901
g74
(dp2902
sg83
g2602
sg76
(lp2903
g69
(g90
g71
NtRp2904
(dp2905
g74
(dp2906
g94
g95
ssg83
g2900
sg76
(lp2907
S'SERVER_NAME'
p2908
asbag69
(g90
g71
NtRp2909
(dp2910
g74
(dp2911
g101
g102
ssg83
g2900
sg76
(lp2912
S':'
asbag69
(g90
g71
NtRp2913
(dp2914
g74
(dp2915
sg83
g2900
sg76
(lp2916
g69
(g70
g71
NtRp2917
(dp2918
g74
(dp2919
g82
I3
ssg83
g2913
sg76
(lp2920
g1547
asbasbasbag69
(g85
g71
NtRp2921
(dp2922
g74
(dp2923
sg83
g2602
sg76
(lp2924
g69
(g90
g71
NtRp2925
(dp2926
g74
(dp2927
g94
g95
ssg83
g2921
sg76
(lp2928
S'SERVER_PORT'
p2929
asbag69
(g90
g71
NtRp2930
(dp2931
g74
(dp2932
g101
g102
ssg83
g2921
sg76
(lp2933
S':'
asbag69
(g90
g71
NtRp2934
(dp2935
g74
(dp2936
sg83
g2921
sg76
(lp2937
g69
(g70
g71
NtRp2938
(dp2939
g74
(dp2940
g82
I3
ssg83
g2934
sg76
(lp2941
g1569
asbasbasbag69
(g85
g71
NtRp2942
(dp2943
g74
(dp2944
sg83
g2602
sg76
(lp2945
g69
(g90
g71
NtRp2946
(dp2947
g74
(dp2948
g94
g95
ssg83
g2942
sg76
(lp2949
S'SERVER_PROTOCOL'
p2950
asbag69
(g90
g71
NtRp2951
(dp2952
g74
(dp2953
g101
g102
ssg83
g2942
sg76
(lp2954
S':'
asbag69
(g90
g71
NtRp2955
(dp2956
g74
(dp2957
sg83
g2942
sg76
(lp2958
g69
(g70
g71
NtRp2959
(dp2960
g74
(dp2961
g82
I3
ssg83
g2955
sg76
(lp2962
g1591
asbasbasbag69
(g85
g71
NtRp2963
(dp2964
g74
(dp2965
sg83
g2602
sg76
(lp2966
g69
(g90
g71
NtRp2967
(dp2968
g74
(dp2969
g94
g95
ssg83
g2963
sg76
(lp2970
S'SERVER_SOFTWARE'
p2971
asbag69
(g90
g71
NtRp2972
(dp2973
g74
(dp2974
g101
g102
ssg83
g2963
sg76
(lp2975
S':'
asbag69
(g90
g71
NtRp2976
(dp2977
g74
(dp2978
sg83
g2963
sg76
(lp2979
g69
(g70
g71
NtRp2980
(dp2981
g74
(dp2982
g82
I3
ssg83
g2976
sg76
(lp2983
g1613
asbasbasbag69
(g85
g71
NtRp2984
(dp2985
g74
(dp2986
sg83
g2602
sg76
(lp2987
g69
(g90
g71
NtRp2988
(dp2989
g74
(dp2990
g94
g95
ssg83
g2984
sg76
(lp2991
S'wsgi.errors'
p2992
asbag69
(g90
g71
NtRp2993
(dp2994
g74
(dp2995
g101
g102
ssg83
g2984
sg76
(lp2996
S':'
asbag69
(g90
g71
NtRp2997
(dp2998
g74
(dp2999
sg83
g2984
sg76
(lp3000
g69
(g70
g71
NtRp3001
(dp3002
g74
(dp3003
g82
I3
ssg83
g2997
sg76
(lp3004
S"<open file '<stderr>', mode 'w' at 0x7fb71aec9270>"
p3005
asbasbasbag69
(g85
g71
NtRp3006
(dp3007
g74
(dp3008
sg83
g2602
sg76
(lp3009
g69
(g90
g71
NtRp3010
(dp3011
g74
(dp3012
g94
g95
ssg83
g3006
sg76
(lp3013
S'wsgi.file_wrapper'
p3014
asbag69
(g90
g71
NtRp3015
(dp3016
g74
(dp3017
g101
g102
ssg83
g3006
sg76
(lp3018
S':'
asbag69
(g90
g71
NtRp3019
(dp3020
g74
(dp3021
sg83
g3006
sg76
(lp3022
g69
(g70
g71
NtRp3023
(dp3024
g74
(dp3025
g82
I3
ssg83
g3019
sg76
(lp3026
S'<class wsgiref.util.FileWrapper at 0x20db940>'
p3027
asbasbasbag69
(g85
g71
NtRp3028
(dp3029
g74
(dp3030
sg83
g2602
sg76
(lp3031
g69
(g90
g71
NtRp3032
(dp3033
g74
(dp3034
g94
g95
ssg83
g3028
sg76
(lp3035
S'wsgi.input'
p3036
asbag69
(g90
g71
NtRp3037
(dp3038
g74
(dp3039
g101
g102
ssg83
g3028
sg76
(lp3040
S':'
asbag69
(g90
g71
NtRp3041
(dp3042
g74
(dp3043
sg83
g3028
sg76
(lp3044
g69
(g70
g71
NtRp3045
(dp3046
g74
(dp3047
g82
I3
ssg83
g3041
sg76
(lp3048
S'<cStringIO.StringO object at 0x7fb6f451f1b8>'
p3049
asbasbasbag69
(g85
g71
NtRp3050
(dp3051
g74
(dp3052
sg83
g2602
sg76
(lp3053
g69
(g90
g71
NtRp3054
(dp3055
g74
(dp3056
g94
g95
ssg83
g3050
sg76
(lp3057
S'wsgi.multiprocess'
p3058
asbag69
(g90
g71
NtRp3059
(dp3060
g74
(dp3061
g101
g102
ssg83
g3050
sg76
(lp3062
S':'
asbag69
(g90
g71
NtRp3063
(dp3064
g74
(dp3065
sg83
g3050
sg76
(lp3066
g69
(g70
g71
NtRp3067
(dp3068
g74
(dp3069
g82
I3
ssg83
g3063
sg76
(lp3070
g112
asbasbasbag69
(g85
g71
NtRp3071
(dp3072
g74
(dp3073
sg83
g2602
sg76
(lp3074
g69
(g90
g71
NtRp3075
(dp3076
g74
(dp3077
g94
g95
ssg83
g3071
sg76
(lp3078
S'wsgi.multithread'
p3079
asbag69
(g90
g71
NtRp3080
(dp3081
g74
(dp3082
g101
g102
ssg83
g3071
sg76
(lp3083
S':'
asbag69
(g90
g71
NtRp3084
(dp3085
g74
(dp3086
sg83
g3071
sg76
(lp3087
g69
(g70
g71
NtRp3088
(dp3089
g74
(dp3090
g82
I3
ssg83
g3084
sg76
(lp3091
g1853
asbasbasbag69
(g85
g71
NtRp3092
(dp3093
g74
(dp3094
sg83
g2602
sg76
(lp3095
g69
(g90
g71
NtRp3096
(dp3097
g74
(dp3098
g94
g95
ssg83
g3092
sg76
(lp3099
S'wsgi.run_once'
p3100
asbag69
(g90
g71
NtRp3101
(dp3102
g74
(dp3103
g101
g102
ssg83
g3092
sg76
(lp3104
S':'
asbag69
(g90
g71
NtRp3105
(dp3106
g74
(dp3107
sg83
g3092
sg76
(lp3108
g69
(g70
g71
NtRp3109
(dp3110
g74
(dp3111
g82
I3
ssg83
g3105
sg76
(lp3112
g112
asbasbasbag69
(g85
g71
NtRp3113
(dp3114
g74
(dp3115
sg83
g2602
sg76
(lp3116
g69
(g90
g71
NtRp3117
(dp3118
g74
(dp3119
g94
g95
ssg83
g3113
sg76
(lp3120
S'wsgi.url_scheme'
p3121
asbag69
(g90
g71
NtRp3122
(dp3123
g74
(dp3124
g101
g102
ssg83
g3113
sg76
(lp3125
S':'
asbag69
(g90
g71
NtRp3126
(dp3127
g74
(dp3128
sg83
g3113
sg76
(lp3129
g69
(g70
g71
NtRp3130
(dp3131
g74
(dp3132
g82
I3
ssg83
g3126
sg76
(lp3133
g1896
asbasbasbag69
(g85
g71
NtRp3134
(dp3135
g74
(dp3136
sg83
g2602
sg76
(lp3137
g69
(g90
g71
NtRp3138
(dp3139
g74
(dp3140
g94
g95
ssg83
g3134
sg76
(lp3141
S'wsgi.version'
p3142
asbag69
(g90
g71
NtRp3143
(dp3144
g74
(dp3145
g101
g102
ssg83
g3134
sg76
(lp3146
S':'
asbag69
(g90
g71
NtRp3147
(dp3148
g74
(dp3149
sg83
g3134
sg76
(lp3150
g69
(g70
g71
NtRp3151
(dp3152
g74
(dp3153
g82
I3
ssg83
g3147
sg76
(lp3154
S'1'
asbasbasbasbasbasbasbasbasbasbasbasbasbsS'frames'
p3155
(lp3156
(dp3157
S'file'
p3158
S'/home/michael/Projects/Scrum-Web-Application-by-web2py/web2py/gluon/restricted.py'
p3159
sS'dump'
p3160
(dp3161
S'environment'
p3162
S"{'A': <class 'gluon.html.A'>, 'Auth': <class 'gluon.tools.Auth'>, 'B': <class 'gluon.html.B'>, 'BEAUTIFY': <class 'gluon.html.BEAUTIFY'>, 'BODY': <class 'gluon.html.BODY'>, 'BR': <class 'gluon.html.BR'>, 'BUTTON': <class 'gluon.html.BUTTON'>, 'CAT': <class 'gluon.html.CAT'>, 'CENTER': <class 'gluon.html.CENTER'>, 'CLEANUP': <class 'gluon.validators.CLEANUP'>, ...}"
p3163
sS'ccode'
p3164
S'<code object <module> at 0x7fb6f451d730, file "/..._Web_Application/controllers/backlog.py", line 8>'
p3165
ssS'lnum'
p3166
I205
sS'lines'
p3167
(dp3168
I200
S'    try:'
p3169
sI201
S'        if type(code) == types.CodeType:'
p3170
sI202
S'            ccode = code'
p3171
sI203
S'        else:'
p3172
sI204
S'            ccode = compile2(code,layer)'
p3173
sI205
S'        exec ccode in environment'
p3174
sI206
S'    except HTTP:'
p3175
sI207
S'        raise'
p3176
sI208
S'    except RestrictedError:'
p3177
sI209
S'        # do not encapsulate (obfuscate) the original RestrictedError'
p3178
ssS'call'
p3179
S"(code='# -*- coding: utf-8 -*-\\n\\n#\\n# Backlog Controller\\n...rm=form)\\n\\nresponse._vars=response._caller(index)\\n', environment={'A': <class 'gluon.html.A'>, 'Auth': <class 'gluon.tools.Auth'>, 'B': <class 'gluon.html.B'>, 'BEAUTIFY': <class 'gluon.html.BEAUTIFY'>, 'BODY': <class 'gluon.html.BODY'>, 'BR': <class 'gluon.html.BR'>, 'BUTTON': <class 'gluon.html.BUTTON'>, 'CAT': <class 'gluon.html.CAT'>, 'CENTER': <class 'gluon.html.CENTER'>, 'CLEANUP': <class 'gluon.validators.CLEANUP'>, ...}, layer='/home/michael/Projects/Scrum-Web-Application-by-...ions/Scrum_Web_Application/controllers/backlog.py')"
p3180
sS'func'
p3181
S'restricted'
p3182
sa(dp3183
g3158
S'/home/michael/Projects/Scrum-Web-Application-by-web2py/web2py/applications/Scrum_Web_Application/controllers/backlog.py'
p3184
sg3160
(dp3185
sg3166
I33
sg3167
(dp3186
I22
S'def show():'
p3187
sI23
S"    this_backlog = db.backlog(request.args(0)) or redirect(URL('index'))"
p3188
sI24
S'    this_product = db.product(this_backlog.product_id)'
p3189
sI25
S'    return dict(product=this_product, backlog=this_backlog)'
p3190
sI26
S''
sI27
S'def edit():'
p3191
sI28
S"    this_backlog = db.backlog(request.args(0)) or redirect(URL('index'))"
p3192
sI29
S'    this_product = db.product(this_backlog.product_id)'
p3193
sI30
S"    form = crud.update(db.backlog, this_backlog, next=URL('index'))"
p3194
sI31
S'    return dict(form=form)'
p3195
ssg3179
S'()'
p3196
sg3181
S'<module>'
p3197
sa(dp3198
g3158
S'/home/michael/Projects/Scrum-Web-Application-by-web2py/web2py/gluon/globals.py'
p3199
sg3160
(dp3200
S'self'
p3201
S'undefined'
p3202
sS'f'
S'<function index>'
p3203
ssg3166
I173
sg3167
(dp3204
I168
S'        self.menu = []             # used by the default view layout'
p3205
sI169
S'        self.files = []            # used by web2py_ajax.html'
p3206
sI170
S'        self.generic_patterns = [] # patterns to allow generic views'
p3207
sI171
S"        self.delimiters = ('{{','}}')"
p3208
sI172
S'        self._vars = None'
p3209
sI173
S'        self._caller = lambda f: f()'
p3210
sI174
S'        self._view_environment = None'
p3211
sI175
S'        self._custom_commit = None'
p3212
sI176
S'        self._custom_rollback = None'
p3213
sI177
S''
ssg3179
S'(f=<function index>)'
p3214
sg3181
S'<lambda>'
p3215
sa(dp3216
g3158
S'/home/michael/Projects/Scrum-Web-Application-by-web2py/web2py/applications/Scrum_Web_Application/controllers/backlog.py'
p3217
sg3160
(dp3218
S'global URL'
p3219
S'<function URL>'
p3220
sS'global request'
p3221
S"<Storage {'body': <cStringIO.StringO object at 0..._vars': <Storage {}>, 'post_vars': <Storage {}>}>"
p3222
sS'db.product'
p3223
S"<Table {'ALL': <gluon.dal.SQLALL object at 0x7fb...ject at 0x7fb6f44abed0>, '_singular': 'Product'}>"
p3224
sS'request.args'
p3225
S'[]'
p3226
sS'global redirect'
p3227
S'<function redirect>'
p3228
sS'global db'
p3229
S"<DAL {'auth_event': <Table {'origin': <gluon.dal...': <gluon.dal.Field object at 0x7fb6f44bb1d0>}>}>"
p3230
sS'this_product'
p3231
g3202
ssg3166
I12
sg3167
(dp3232
I7
S''
sI8
S'def index():'
p3233
sI9
S'    """'
p3234
sI10
S'    Shows all created backlogs of the product'
p3235
sI11
S'    """'
p3236
sI12
S"    this_product = db.product(request.args(0)) or redirect(URL('/product/index'))"
p3237
sI13
S'    backlogs = db(db.backlog.product_id == this_product.id).select()'
p3238
sI14
S'    return dict(backlogs=backlogs)'
p3239
sI15
S''
sI16
S'def create():'
p3240
ssg3179
S'()'
p3241
sg3181
g2011
sa(dp3242
g3158
S'/home/michael/Projects/Scrum-Web-Application-by-web2py/web2py/gluon/html.py'
p3243
sg3160
(dp3244
S'builtinSyntaxError'
p3245
S"<type 'exceptions.SyntaxError'>"
p3246
ssg3166
I274
sg3167
(dp3247
I269
S"            function, extension = function.split('.', 1)"
p3248
sI270
S''
sI271
S"    function2 = '%s.%s' % (function,extension or 'html')"
p3249
sI272
S''
sI273
S'    if not (application and controller and function):'
p3250
sI274
S"        raise SyntaxError, 'not enough information to build the url'"
p3251
sI275
S''
sI276
S'    if args:'
p3252
sI277
S'        if url_encode:'
p3253
sI278
S'            if encode_embedded_slash:'
p3254
ssg3179
S"(a=None, c=None, f='', r=<Storage {'body': <cStringIO.StringO object at 0..._vars': <Storage {}>, 'post_vars': <Storage {}>}>, args=['product', 'index'], vars={}, anchor='', extension=None, env=<Storage {'debugging': False, 'http_user_agent':...[]), 'query_string': '', 'wsgi_run_once': False}>, hmac_key=None, hash_vars=True, salt=None, user_signature=None, scheme=None, host=None, port=None, encode_embedded_slash=False, url_encode=True)"
p3255
sg3181
S'URL'
p3256
sasS'pyver'
p3257
S'Python 2.7.3: /usr/bin/python'
p3258
sS'session'
p3259
g69
(g70
g71
NtRp3260
(dp3261
g74
(dp3262
sg76
(lp3263
g69
(g78
g71
NtRp3264
(dp3265
g74
(dp3266
g82
I5
ssg83
Nsg76
(lp3267
g69
(g85
g71
NtRp3268
(dp3269
g74
(dp3270
sg83
g3264
sg76
(lp3271
g69
(g90
g71
NtRp3272
(dp3273
g74
(dp3274
g94
g95
ssg83
g3268
sg76
(lp3275
S'last_query'
p3276
asbag69
(g90
g71
NtRp3277
(dp3278
g74
(dp3279
g101
g102
ssg83
g3268
sg76
(lp3280
S':'
asbag69
(g90
g71
NtRp3281
(dp3282
g74
(dp3283
sg83
g3268
sg76
(lp3284
g69
(g70
g71
NtRp3285
(dp3286
g74
(dp3287
g82
I5
ssg83
g3281
sg76
(lp3288
S'db.auth_group.id>0'
p3289
asbasbasbasbasbsS'etype'
p3290
S"<type 'exceptions.SyntaxError'>"
p3291
sS'date'
p3292
S'Wed Jun 27 16:22:17 2012'
p3293
sS'response'
p3294
g69
(g70
g71
NtRp3295
(dp3296
g74
(dp3297
sg76
(lp3298
g69
(g78
g71
NtRp3299
(dp3300
g74
(dp3301
g82
I5
ssg83
Nsg76
(lp3302
g69
(g85
g71
NtRp3303
(dp3304
g74
(dp3305
sg83
g3299
sg76
(lp3306
g69
(g90
g71
NtRp3307
(dp3308
g74
(dp3309
g94
g95
ssg83
g3303
sg76
(lp3310
g167
asbag69
(g90
g71
NtRp3311
(dp3312
g74
(dp3313
g101
g102
ssg83
g3303
sg76
(lp3314
S':'
asbag69
(g90
g71
NtRp3315
(dp3316
g74
(dp3317
sg83
g3303
sg76
(lp3318
g69
(g70
g71
NtRp3319
(dp3320
g74
(dp3321
g82
I5
ssg83
g3315
sg76
(lp3322
S'<cStringIO.StringO object at 0x7fb7083a89d0>'
p3323
asbasbasbag69
(g85
g71
NtRp3324
(dp3325
g74
(dp3326
sg83
g3299
sg76
(lp3327
g69
(g90
g71
NtRp3328
(dp3329
g74
(dp3330
g94
g95
ssg83
g3324
sg76
(lp3331
g233
asbag69
(g90
g71
NtRp3332
(dp3333
g74
(dp3334
g101
g102
ssg83
g3324
sg76
(lp3335
S':'
asbag69
(g90
g71
NtRp3336
(dp3337
g74
(dp3338
sg83
g3324
sg76
(lp3339
g69
(g70
g71
NtRp3340
(dp3341
g74
(dp3342
g82
I5
ssg83
g3336
sg76
(lp3343
g69
(g78
g71
NtRp3344
(dp3345
g74
(dp3346
g82
I4
ssg83
Nsg76
(lp3347
g69
(g85
g71
NtRp3348
(dp3349
g74
(dp3350
sg83
g3344
sg76
(lp3351
g69
(g90
g71
NtRp3352
(dp3353
g74
(dp3354
g94
g95
ssg83
g3348
sg76
(lp3355
S'session_id_scrum_web_application'
p3356
asbag69
(g90
g71
NtRp3357
(dp3358
g74
(dp3359
g101
g102
ssg83
g3348
sg76
(lp3360
S':'
asbag69
(g90
g71
NtRp3361
(dp3362
g74
(dp3363
sg83
g3348
sg76
(lp3364
g69
(g70
g71
NtRp3365
(dp3366
g74
(dp3367
g82
I4
ssg83
g3361
sg76
(lp3368
g69
(g78
g71
NtRp3369
(dp3370
g74
(dp3371
g82
I3
ssg83
Nsg76
(lp3372
g69
(g85
g71
NtRp3373
(dp3374
g74
(dp3375
sg83
g3369
sg76
(lp3376
g69
(g90
g71
NtRp3377
(dp3378
g74
(dp3379
g94
g95
ssg83
g3373
sg76
(lp3380
g283
asbag69
(g90
g71
NtRp3381
(dp3382
g74
(dp3383
g101
g102
ssg83
g3373
sg76
(lp3384
S':'
asbag69
(g90
g71
NtRp3385
(dp3386
g74
(dp3387
sg83
g3373
sg76
(lp3388
g69
(g70
g71
NtRp3389
(dp3390
g74
(dp3391
g82
I3
ssg83
g3385
sg76
(lp3392
S''
asbasbasbag69
(g85
g71
NtRp3393
(dp3394
g74
(dp3395
sg83
g3369
sg76
(lp3396
g69
(g90
g71
NtRp3397
(dp3398
g74
(dp3399
g94
g95
ssg83
g3393
sg76
(lp3400
g304
asbag69
(g90
g71
NtRp3401
(dp3402
g74
(dp3403
g101
g102
ssg83
g3393
sg76
(lp3404
S':'
asbag69
(g90
g71
NtRp3405
(dp3406
g74
(dp3407
sg83
g3393
sg76
(lp3408
g69
(g70
g71
NtRp3409
(dp3410
g74
(dp3411
g82
I3
ssg83
g3405
sg76
(lp3412
S''
asbasbasbag69
(g85
g71
NtRp3413
(dp3414
g74
(dp3415
sg83
g3369
sg76
(lp3416
g69
(g90
g71
NtRp3417
(dp3418
g74
(dp3419
g94
g95
ssg83
g3413
sg76
(lp3420
g325
asbag69
(g90
g71
NtRp3421
(dp3422
g74
(dp3423
g101
g102
ssg83
g3413
sg76
(lp3424
S':'
asbag69
(g90
g71
NtRp3425
(dp3426
g74
(dp3427
sg83
g3413
sg76
(lp3428
g69
(g70
g71
NtRp3429
(dp3430
g74
(dp3431
g82
I3
ssg83
g3425
sg76
(lp3432
S''
asbasbasbag69
(g85
g71
NtRp3433
(dp3434
g74
(dp3435
sg83
g3369
sg76
(lp3436
g69
(g90
g71
NtRp3437
(dp3438
g74
(dp3439
g94
g95
ssg83
g3433
sg76
(lp3440
g346
asbag69
(g90
g71
NtRp3441
(dp3442
g74
(dp3443
g101
g102
ssg83
g3433
sg76
(lp3444
S':'
asbag69
(g90
g71
NtRp3445
(dp3446
g74
(dp3447
sg83
g3433
sg76
(lp3448
g69
(g70
g71
NtRp3449
(dp3450
g74
(dp3451
g82
I3
ssg83
g3445
sg76
(lp3452
S''
asbasbasbag69
(g85
g71
NtRp3453
(dp3454
g74
(dp3455
sg83
g3369
sg76
(lp3456
g69
(g90
g71
NtRp3457
(dp3458
g74
(dp3459
g94
g95
ssg83
g3453
sg76
(lp3460
g367
asbag69
(g90
g71
NtRp3461
(dp3462
g74
(dp3463
g101
g102
ssg83
g3453
sg76
(lp3464
S':'
asbag69
(g90
g71
NtRp3465
(dp3466
g74
(dp3467
sg83
g3453
sg76
(lp3468
g69
(g70
g71
NtRp3469
(dp3470
g74
(dp3471
g82
I3
ssg83
g3465
sg76
(lp3472
S''
asbasbasbag69
(g85
g71
NtRp3473
(dp3474
g74
(dp3475
sg83
g3369
sg76
(lp3476
g69
(g90
g71
NtRp3477
(dp3478
g74
(dp3479
g94
g95
ssg83
g3473
sg76
(lp3480
g388
asbag69
(g90
g71
NtRp3481
(dp3482
g74
(dp3483
g101
g102
ssg83
g3473
sg76
(lp3484
S':'
asbag69
(g90
g71
NtRp3485
(dp3486
g74
(dp3487
sg83
g3473
sg76
(lp3488
g69
(g70
g71
NtRp3489
(dp3490
g74
(dp3491
g82
I3
ssg83
g3485
sg76
(lp3492
S'/'
asbasbasbag69
(g85
g71
NtRp3493
(dp3494
g74
(dp3495
sg83
g3369
sg76
(lp3496
g69
(g90
g71
NtRp3497
(dp3498
g74
(dp3499
g94
g95
ssg83
g3493
sg76
(lp3500
g409
asbag69
(g90
g71
NtRp3501
(dp3502
g74
(dp3503
g101
g102
ssg83
g3493
sg76
(lp3504
S':'
asbag69
(g90
g71
NtRp3505
(dp3506
g74
(dp3507
sg83
g3493
sg76
(lp3508
g69
(g70
g71
NtRp3509
(dp3510
g74
(dp3511
g82
I3
ssg83
g3505
sg76
(lp3512
S''
asbasbasbag69
(g85
g71
NtRp3513
(dp3514
g74
(dp3515
sg83
g3369
sg76
(lp3516
g69
(g90
g71
NtRp3517
(dp3518
g74
(dp3519
g94
g95
ssg83
g3513
sg76
(lp3520
g430
asbag69
(g90
g71
NtRp3521
(dp3522
g74
(dp3523
g101
g102
ssg83
g3513
sg76
(lp3524
S':'
asbag69
(g90
g71
NtRp3525
(dp3526
g74
(dp3527
sg83
g3513
sg76
(lp3528
g69
(g70
g71
NtRp3529
(dp3530
g74
(dp3531
g82
I3
ssg83
g3525
sg76
(lp3532
S''
asbasbasbasbasbasbasbasbasbasbasbag69
(g85
g71
NtRp3533
(dp3534
g74
(dp3535
sg83
g3299
sg76
(lp3536
g69
(g90
g71
NtRp3537
(dp3538
g74
(dp3539
g94
g95
ssg83
g3533
sg76
(lp3540
S'delimiters'
p3541
asbag69
(g90
g71
NtRp3542
(dp3543
g74
(dp3544
g101
g102
ssg83
g3533
sg76
(lp3545
S':'
asbag69
(g90
g71
NtRp3546
(dp3547
g74
(dp3548
sg83
g3533
sg76
(lp3549
g69
(g70
g71
NtRp3550
(dp3551
g74
(dp3552
g82
I5
ssg83
g3546
sg76
(lp3553
g69
(g78
g71
NtRp3554
(dp3555
g74
(dp3556
g82
I4
ssg83
Nsg76
(lp3557
g69
(g85
g71
NtRp3558
(dp3559
g74
(dp3560
sg83
g3554
sg76
(lp3561
g69
(g90
g71
NtRp3562
(dp3563
g74
(dp3564
sg83
g3558
sg76
(lp3565
g69
(g70
g71
NtRp3566
(dp3567
g74
(dp3568
g82
I4
ssg83
g3562
sg76
(lp3569
S'{{'
p3570
asbasbasbag69
(g85
g71
NtRp3571
(dp3572
g74
(dp3573
sg83
g3554
sg76
(lp3574
g69
(g90
g71
NtRp3575
(dp3576
g74
(dp3577
sg83
g3571
sg76
(lp3578
g69
(g70
g71
NtRp3579
(dp3580
g74
(dp3581
g82
I4
ssg83
g3575
sg76
(lp3582
S'}}'
p3583
asbasbasbasbasbasbasbag69
(g85
g71
NtRp3584
(dp3585
g74
(dp3586
sg83
g3299
sg76
(lp3587
g69
(g90
g71
NtRp3588
(dp3589
g74
(dp3590
g94
g95
ssg83
g3584
sg76
(lp3591
S'files'
p3592
asbag69
(g90
g71
NtRp3593
(dp3594
g74
(dp3595
g101
g102
ssg83
g3584
sg76
(lp3596
S':'
asbag69
(g90
g71
NtRp3597
(dp3598
g74
(dp3599
sg83
g3584
sg76
(lp3600
g69
(g70
g71
NtRp3601
(dp3602
g74
(dp3603
g82
I5
ssg83
g3597
sg76
(lp3604
g69
(g78
g71
NtRp3605
(dp3606
g74
(dp3607
g82
I4
ssg83
Nsg76
(lp3608
sbasbasbasbag69
(g85
g71
NtRp3609
(dp3610
g74
(dp3611
sg83
g3299
sg76
(lp3612
g69
(g90
g71
NtRp3613
(dp3614
g74
(dp3615
g94
g95
ssg83
g3609
sg76
(lp3616
S'flash'
p3617
asbag69
(g90
g71
NtRp3618
(dp3619
g74
(dp3620
g101
g102
ssg83
g3609
sg76
(lp3621
S':'
asbag69
(g90
g71
NtRp3622
(dp3623
g74
(dp3624
sg83
g3609
sg76
(lp3625
g69
(g70
g71
NtRp3626
(dp3627
g74
(dp3628
g82
I5
ssg83
g3622
sg76
(lp3629
S''
asbasbasbag69
(g85
g71
NtRp3630
(dp3631
g74
(dp3632
sg83
g3299
sg76
(lp3633
g69
(g90
g71
NtRp3634
(dp3635
g74
(dp3636
g94
g95
ssg83
g3630
sg76
(lp3637
S'generic_patterns'
p3638
asbag69
(g90
g71
NtRp3639
(dp3640
g74
(dp3641
g101
g102
ssg83
g3630
sg76
(lp3642
S':'
asbag69
(g90
g71
NtRp3643
(dp3644
g74
(dp3645
sg83
g3630
sg76
(lp3646
g69
(g70
g71
NtRp3647
(dp3648
g74
(dp3649
g82
I5
ssg83
g3643
sg76
(lp3650
g69
(g78
g71
NtRp3651
(dp3652
g74
(dp3653
g82
I4
ssg83
Nsg76
(lp3654
g69
(g85
g71
NtRp3655
(dp3656
g74
(dp3657
sg83
g3651
sg76
(lp3658
g69
(g90
g71
NtRp3659
(dp3660
g74
(dp3661
sg83
g3655
sg76
(lp3662
g69
(g70
g71
NtRp3663
(dp3664
g74
(dp3665
g82
I4
ssg83
g3659
sg76
(lp3666
S'*'
asbasbasbasbasbasbasbag69
(g85
g71
NtRp3667
(dp3668
g74
(dp3669
sg83
g3299
sg76
(lp3670
g69
(g90
g71
NtRp3671
(dp3672
g74
(dp3673
g94
g95
ssg83
g3667
sg76
(lp3674
S'headers'
p3675
asbag69
(g90
g71
NtRp3676
(dp3677
g74
(dp3678
g101
g102
ssg83
g3667
sg76
(lp3679
S':'
asbag69
(g90
g71
NtRp3680
(dp3681
g74
(dp3682
sg83
g3667
sg76
(lp3683
g69
(g70
g71
NtRp3684
(dp3685
g74
(dp3686
g82
I5
ssg83
g3680
sg76
(lp3687
g69
(g78
g71
NtRp3688
(dp3689
g74
(dp3690
g82
I4
ssg83
Nsg76
(lp3691
g69
(g85
g71
NtRp3692
(dp3693
g74
(dp3694
sg83
g3688
sg76
(lp3695
g69
(g90
g71
NtRp3696
(dp3697
g74
(dp3698
g94
g95
ssg83
g3692
sg76
(lp3699
S'Cache-Control'
p3700
asbag69
(g90
g71
NtRp3701
(dp3702
g74
(dp3703
g101
g102
ssg83
g3692
sg76
(lp3704
S':'
asbag69
(g90
g71
NtRp3705
(dp3706
g74
(dp3707
sg83
g3692
sg76
(lp3708
g69
(g70
g71
NtRp3709
(dp3710
g74
(dp3711
g82
I4
ssg83
g3705
sg76
(lp3712
S'no-store, no-cache, must-revalidate, post-check=0, pre-check=0'
p3713
asbasbasbag69
(g85
g71
NtRp3714
(dp3715
g74
(dp3716
sg83
g3688
sg76
(lp3717
g69
(g90
g71
NtRp3718
(dp3719
g74
(dp3720
g94
g95
ssg83
g3714
sg76
(lp3721
S'Content-Type'
p3722
asbag69
(g90
g71
NtRp3723
(dp3724
g74
(dp3725
g101
g102
ssg83
g3714
sg76
(lp3726
S':'
asbag69
(g90
g71
NtRp3727
(dp3728
g74
(dp3729
sg83
g3714
sg76
(lp3730
g69
(g70
g71
NtRp3731
(dp3732
g74
(dp3733
g82
I4
ssg83
g3727
sg76
(lp3734
S'text/html; charset=utf-8'
p3735
asbasbasbag69
(g85
g71
NtRp3736
(dp3737
g74
(dp3738
sg83
g3688
sg76
(lp3739
g69
(g90
g71
NtRp3740
(dp3741
g74
(dp3742
g94
g95
ssg83
g3736
sg76
(lp3743
S'Expires'
p3744
asbag69
(g90
g71
NtRp3745
(dp3746
g74
(dp3747
g101
g102
ssg83
g3736
sg76
(lp3748
S':'
asbag69
(g90
g71
NtRp3749
(dp3750
g74
(dp3751
sg83
g3736
sg76
(lp3752
g69
(g70
g71
NtRp3753
(dp3754
g74
(dp3755
g82
I4
ssg83
g3749
sg76
(lp3756
S'Wed, 27 Jun 2012 08:22:17 GMT'
p3757
asbasbasbag69
(g85
g71
NtRp3758
(dp3759
g74
(dp3760
sg83
g3688
sg76
(lp3761
g69
(g90
g71
NtRp3762
(dp3763
g74
(dp3764
g94
g95
ssg83
g3758
sg76
(lp3765
S'Pragma'
p3766
asbag69
(g90
g71
NtRp3767
(dp3768
g74
(dp3769
g101
g102
ssg83
g3758
sg76
(lp3770
S':'
asbag69
(g90
g71
NtRp3771
(dp3772
g74
(dp3773
sg83
g3758
sg76
(lp3774
g69
(g70
g71
NtRp3775
(dp3776
g74
(dp3777
g82
I4
ssg83
g3771
sg76
(lp3778
S'no-cache'
p3779
asbasbasbag69
(g85
g71
NtRp3780
(dp3781
g74
(dp3782
sg83
g3688
sg76
(lp3783
g69
(g90
g71
NtRp3784
(dp3785
g74
(dp3786
g94
g95
ssg83
g3780
sg76
(lp3787
S'X-Powered-By'
p3788
asbag69
(g90
g71
NtRp3789
(dp3790
g74
(dp3791
g101
g102
ssg83
g3780
sg76
(lp3792
S':'
asbag69
(g90
g71
NtRp3793
(dp3794
g74
(dp3795
sg83
g3780
sg76
(lp3796
g69
(g70
g71
NtRp3797
(dp3798
g74
(dp3799
g82
I4
ssg83
g3793
sg76
(lp3800
S'web2py'
p3801
asbasbasbasbasbasbasbag69
(g85
g71
NtRp3802
(dp3803
g74
(dp3804
sg83
g3299
sg76
(lp3805
g69
(g90
g71
NtRp3806
(dp3807
g74
(dp3808
g94
g95
ssg83
g3802
sg76
(lp3809
S'menu'
p3810
asbag69
(g90
g71
NtRp3811
(dp3812
g74
(dp3813
g101
g102
ssg83
g3802
sg76
(lp3814
S':'
asbag69
(g90
g71
NtRp3815
(dp3816
g74
(dp3817
sg83
g3802
sg76
(lp3818
g69
(g70
g71
NtRp3819
(dp3820
g74
(dp3821
g82
I5
ssg83
g3815
sg76
(lp3822
g69
(g78
g71
NtRp3823
(dp3824
g74
(dp3825
g82
I4
ssg83
Nsg76
(lp3826
g69
(g85
g71
NtRp3827
(dp3828
g74
(dp3829
sg83
g3823
sg76
(lp3830
g69
(g90
g71
NtRp3831
(dp3832
g74
(dp3833
sg83
g3827
sg76
(lp3834
g69
(g70
g71
NtRp3835
(dp3836
g74
(dp3837
g82
I4
ssg83
g3831
sg76
(lp3838
g69
(g78
g71
NtRp3839
(dp3840
g74
(dp3841
g82
I3
ssg83
Nsg76
(lp3842
g69
(g85
g71
NtRp3843
(dp3844
g74
(dp3845
sg83
g3839
sg76
(lp3846
g69
(g90
g71
NtRp3847
(dp3848
g74
(dp3849
sg83
g3843
sg76
(lp3850
g69
(g70
g71
NtRp3851
(dp3852
g74
(dp3853
g82
I3
ssg83
g3847
sg76
(lp3854
cgluon.languages
lazyT_unpickle
p3855
(S't\x04\x00\x00\x00Home'
tRp3856
asbasbasbag69
(g85
g71
NtRp3857
(dp3858
g74
(dp3859
sg83
g3839
sg76
(lp3860
g69
(g90
g71
NtRp3861
(dp3862
g74
(dp3863
sg83
g3857
sg76
(lp3864
g69
(g70
g71
NtRp3865
(dp3866
g74
(dp3867
g82
I3
ssg83
g3861
sg76
(lp3868
g112
asbasbasbag69
(g85
g71
NtRp3869
(dp3870
g74
(dp3871
sg83
g3839
sg76
(lp3872
g69
(g90
g71
NtRp3873
(dp3874
g74
(dp3875
sg83
g3869
sg76
(lp3876
g69
(g70
g71
NtRp3877
(dp3878
g74
(dp3879
g82
I3
ssg83
g3873
sg76
(lp3880
S'/Scrum_Web_Application/default/index'
p3881
asbasbasbag69
(g85
g71
NtRp3882
(dp3883
g74
(dp3884
sg83
g3839
sg76
(lp3885
g69
(g90
g71
NtRp3886
(dp3887
g74
(dp3888
sg83
g3882
sg76
(lp3889
g69
(g70
g71
NtRp3890
(dp3891
g74
(dp3892
g82
I3
ssg83
g3886
sg76
(lp3893
g69
(g78
g71
NtRp3894
(dp3895
g74
(dp3896
g82
I2
ssg83
Nsg76
(lp3897
sbasbasbasbasbasbasbasbag69
(g85
g71
NtRp3898
(dp3899
g74
(dp3900
sg83
g3823
sg76
(lp3901
g69
(g90
g71
NtRp3902
(dp3903
g74
(dp3904
sg83
g3898
sg76
(lp3905
g69
(g70
g71
NtRp3906
(dp3907
g74
(dp3908
g82
I4
ssg83
g3902
sg76
(lp3909
g69
(g78
g71
NtRp3910
(dp3911
g74
(dp3912
g82
I3
ssg83
Nsg76
(lp3913
g69
(g85
g71
NtRp3914
(dp3915
g74
(dp3916
sg83
g3910
sg76
(lp3917
g69
(g90
g71
NtRp3918
(dp3919
g74
(dp3920
sg83
g3914
sg76
(lp3921
g69
(g70
g71
NtRp3922
(dp3923
g74
(dp3924
g82
I3
ssg83
g3918
sg76
(lp3925
g69
(cgluon.html
SPAN
p3926
g71
NtRp3927
(dp3928
g74
(dp3929
g94
S'color:yellow'
p3930
ssg83
Nsg76
(lp3931
g3801
asbasbasbasbag69
(g85
g71
NtRp3932
(dp3933
g74
(dp3934
sg83
g3910
sg76
(lp3935
g69
(g90
g71
NtRp3936
(dp3937
g74
(dp3938
sg83
g3932
sg76
(lp3939
g69
(g70
g71
NtRp3940
(dp3941
g74
(dp3942
g82
I3
ssg83
g3936
sg76
(lp3943
g112
asbasbasbag69
(g85
g71
NtRp3944
(dp3945
g74
(dp3946
sg83
g3910
sg76
(lp3947
g69
(g90
g71
NtRp3948
(dp3949
g74
(dp3950
sg83
g3944
sg76
(lp3951
g69
(g70
g71
NtRp3952
(dp3953
g74
(dp3954
g82
I3
ssg83
g3948
sg76
(lp3955
S'None'
p3956
asbasbasbag69
(g85
g71
NtRp3957
(dp3958
g74
(dp3959
sg83
g3910
sg76
(lp3960
g69
(g90
g71
NtRp3961
(dp3962
g74
(dp3963
sg83
g3957
sg76
(lp3964
g69
(g70
g71
NtRp3965
(dp3966
g74
(dp3967
g82
I3
ssg83
g3961
sg76
(lp3968
g69
(g78
g71
NtRp3969
(dp3970
g74
(dp3971
g82
I2
ssg83
Nsg76
(lp3972
g69
(g85
g71
NtRp3973
(dp3974
g74
(dp3975
sg83
g3969
sg76
(lp3976
g69
(g90
g71
NtRp3977
(dp3978
g74
(dp3979
sg83
g3973
sg76
(lp3980
g69
(g70
g71
NtRp3981
(dp3982
g74
(dp3983
g82
I2
ssg83
g3977
sg76
(lp3984
g69
(g78
g71
NtRp3985
(dp3986
g74
(dp3987
g82
I1
ssg83
Nsg76
(lp3988
g69
(g85
g71
NtRp3989
(dp3990
g74
(dp3991
sg83
g3985
sg76
(lp3992
g69
(g90
g71
NtRp3993
(dp3994
g74
(dp3995
sg83
g3989
sg76
(lp3996
g69
(g70
g71
NtRp3997
(dp3998
g74
(dp3999
g82
I1
ssg83
g3993
sg76
(lp4000
g3855
(S's\x08\x00\x00\x00My Sites'
tRp4001
asbasbasbag69
(g85
g71
NtRp4002
(dp4003
g74
(dp4004
sg83
g3985
sg76
(lp4005
g69
(g90
g71
NtRp4006
(dp4007
g74
(dp4008
sg83
g4002
sg76
(lp4009
g69
(g70
g71
NtRp4010
(dp4011
g74
(dp4012
g82
I1
ssg83
g4006
sg76
(lp4013
I00
asbasbasbag69
(g85
g71
NtRp4014
(dp4015
g74
(dp4016
sg83
g3985
sg76
(lp4017
g69
(g90
g71
NtRp4018
(dp4019
g74
(dp4020
sg83
g4014
sg76
(lp4021
g69
(g70
g71
NtRp4022
(dp4023
g74
(dp4024
g82
I1
ssg83
g4018
sg76
(lp4025
S'/admin/default/site'
p4026
asbasbasbasbasbasbasbag69
(g85
g71
NtRp4027
(dp4028
g74
(dp4029
sg83
g3969
sg76
(lp4030
g69
(g90
g71
NtRp4031
(dp4032
g74
(dp4033
sg83
g4027
sg76
(lp4034
g69
(g70
g71
NtRp4035
(dp4036
g74
(dp4037
g82
I2
ssg83
g4031
sg76
(lp4038
g69
(g78
g71
NtRp4039
(dp4040
g74
(dp4041
g82
I1
ssg83
Nsg76
(lp4042
g69
(g85
g71
NtRp4043
(dp4044
g74
(dp4045
sg83
g4039
sg76
(lp4046
g69
(g90
g71
NtRp4047
(dp4048
g74
(dp4049
sg83
g4043
sg76
(lp4050
g69
(g70
g71
NtRp4051
(dp4052
g74
(dp4053
g82
I1
ssg83
g4047
sg76
(lp4054
g3855
(S's\x08\x00\x00\x00This App'
tRp4055
asbasbasbag69
(g85
g71
NtRp4056
(dp4057
g74
(dp4058
sg83
g4039
sg76
(lp4059
g69
(g90
g71
NtRp4060
(dp4061
g74
(dp4062
sg83
g4056
sg76
(lp4063
g69
(g70
g71
NtRp4064
(dp4065
g74
(dp4066
g82
I1
ssg83
g4060
sg76
(lp4067
I00
asbasbasbag69
(g85
g71
NtRp4068
(dp4069
g74
(dp4070
sg83
g4039
sg76
(lp4071
g69
(g90
g71
NtRp4072
(dp4073
g74
(dp4074
sg83
g4068
sg76
(lp4075
g69
(g70
g71
NtRp4076
(dp4077
g74
(dp4078
g82
I1
ssg83
g4072
sg76
(lp4079
S'/admin/default/design/Scrum_Web_Application'
p4080
asbasbasbag69
(g85
g71
NtRp4081
(dp4082
g74
(dp4083
sg83
g4039
sg76
(lp4084
g69
(g90
g71
NtRp4085
(dp4086
g74
(dp4087
sg83
g4081
sg76
(lp4088
g69
(g70
g71
NtRp4089
(dp4090
g74
(dp4091
g82
I1
ssg83
g4085
sg76
(lp4092
(lp4093
(g3855
(S't\n\x00\x00\x00Controller'
tRp4094
I00
S'/admin/default/edit/Scrum_Web_Application/controllers/backlog.py'
tp4095
a(g3855
(S't\x04\x00\x00\x00View'
tRp4096
I00
S'/admin/default/edit/Scrum_Web_Application/views/backlog/index.html'
tp4097
a(g3855
(S't\x06\x00\x00\x00Layout'
tRp4098
I00
S'/admin/default/edit/Scrum_Web_Application/views/layout.html'
tp4099
a(g3855
(S't\n\x00\x00\x00Stylesheet'
tRp4100
I00
S'/admin/default/edit/Scrum_Web_Application/static/css/web2py.css'
tp4101
a(g3855
(S's\x08\x00\x00\x00DB Model'
tRp4102
I00
S'/admin/default/edit/Scrum_Web_Application/models/db.py'
tp4103
a(g3855
(S's\n\x00\x00\x00Menu Model'
tRp4104
I00
S'/admin/default/edit/Scrum_Web_Application/models/menu.py'
tp4105
a(g3855
(S't\x08\x00\x00\x00Database'
tRp4106
I00
S'/Scrum_Web_Application/appadmin/index'
tp4107
a(g3855
(S't\x06\x00\x00\x00Errors'
tRp4108
I00
S'/admin/default/errors/Scrum_Web_Application'
tp4109
a(g3855
(S't\x05\x00\x00\x00About'
tRp4110
I00
S'/admin/default/about/Scrum_Web_Application'
tp4111
aasbasbasbasbasbasbasbag69
(g85
g71
NtRp4112
(dp4113
g74
(dp4114
sg83
g3969
sg76
(lp4115
g69
(g90
g71
NtRp4116
(dp4117
g74
(dp4118
sg83
g4112
sg76
(lp4119
g69
(g70
g71
NtRp4120
(dp4121
g74
(dp4122
g82
I2
ssg83
g4116
sg76
(lp4123
g69
(g78
g71
NtRp4124
(dp4125
g74
(dp4126
g82
I1
ssg83
Nsg76
(lp4127
g69
(g85
g71
NtRp4128
(dp4129
g74
(dp4130
sg83
g4124
sg76
(lp4131
g69
(g90
g71
NtRp4132
(dp4133
g74
(dp4134
sg83
g4128
sg76
(lp4135
g69
(g70
g71
NtRp4136
(dp4137
g74
(dp4138
g82
I1
ssg83
g4132
sg76
(lp4139
S'web2py.com'
p4140
asbasbasbag69
(g85
g71
NtRp4141
(dp4142
g74
(dp4143
sg83
g4124
sg76
(lp4144
g69
(g90
g71
NtRp4145
(dp4146
g74
(dp4147
sg83
g4141
sg76
(lp4148
g69
(g70
g71
NtRp4149
(dp4150
g74
(dp4151
g82
I1
ssg83
g4145
sg76
(lp4152
I00
asbasbasbag69
(g85
g71
NtRp4153
(dp4154
g74
(dp4155
sg83
g4124
sg76
(lp4156
g69
(g90
g71
NtRp4157
(dp4158
g74
(dp4159
sg83
g4153
sg76
(lp4160
g69
(g70
g71
NtRp4161
(dp4162
g74
(dp4163
g82
I1
ssg83
g4157
sg76
(lp4164
S'http://www.web2py.com'
p4165
asbasbasbag69
(g85
g71
NtRp4166
(dp4167
g74
(dp4168
sg83
g4124
sg76
(lp4169
g69
(g90
g71
NtRp4170
(dp4171
g74
(dp4172
sg83
g4166
sg76
(lp4173
g69
(g70
g71
NtRp4174
(dp4175
g74
(dp4176
g82
I1
ssg83
g4170
sg76
(lp4177
(lp4178
(g3855
(S't\x08\x00\x00\x00Download'
tRp4179
I00
S'http://www.web2py.com/examples/default/download'
p4180
tp4181
a(g3855
(S't\x07\x00\x00\x00Support'
tRp4182
I00
S'http://www.web2py.com/examples/default/support'
p4183
tp4184
a(g3855
(S't\x04\x00\x00\x00Demo'
tRp4185
I00
S'http://web2py.com/demo_admin'
p4186
tp4187
a(g3855
(S's\x0e\x00\x00\x00Quick Examples'
tRp4188
I00
S'http://web2py.com/examples/default/examples'
p4189
tp4190
a(g3855
(S't\x03\x00\x00\x00FAQ'
tRp4191
I00
S'http://web2py.com/AlterEgo'
p4192
tp4193
a(g3855
(S't\x06\x00\x00\x00Videos'
tRp4194
I00
S'http://www.web2py.com/examples/default/videos/'
p4195
tp4196
a(g3855
(S's\x11\x00\x00\x00Free Applications'
tRp4197
I00
S'http://web2py.com/appliances'
p4198
tp4199
a(g3855
(S't\x07\x00\x00\x00Plugins'
tRp4200
I00
S'http://web2py.com/plugins'
p4201
tp4202
a(g3855
(S't\x07\x00\x00\x00Layouts'
tRp4203
I00
S'http://web2py.com/layouts'
p4204
tp4205
a(g3855
(S't\x07\x00\x00\x00Recipes'
tRp4206
I00
S'http://web2pyslices.com/'
p4207
tp4208
a(g3855
(S't\x08\x00\x00\x00Semantic'
tRp4209
I00
S'http://web2py.com/semantic'
p4210
tp4211
aasbasbasbasbasbasbasbag69
(g85
g71
NtRp4212
(dp4213
g74
(dp4214
sg83
g3969
sg76
(lp4215
g69
(g90
g71
NtRp4216
(dp4217
g74
(dp4218
sg83
g4212
sg76
(lp4219
g69
(g70
g71
NtRp4220
(dp4221
g74
(dp4222
g82
I2
ssg83
g4216
sg76
(lp4223
g69
(g78
g71
NtRp4224
(dp4225
g74
(dp4226
g82
I1
ssg83
Nsg76
(lp4227
g69
(g85
g71
NtRp4228
(dp4229
g74
(dp4230
sg83
g4224
sg76
(lp4231
g69
(g90
g71
NtRp4232
(dp4233
g74
(dp4234
sg83
g4228
sg76
(lp4235
g69
(g70
g71
NtRp4236
(dp4237
g74
(dp4238
g82
I1
ssg83
g4232
sg76
(lp4239
g3855
(S't\r\x00\x00\x00Documentation'
tRp4240
asbasbasbag69
(g85
g71
NtRp4241
(dp4242
g74
(dp4243
sg83
g4224
sg76
(lp4244
g69
(g90
g71
NtRp4245
(dp4246
g74
(dp4247
sg83
g4241
sg76
(lp4248
g69
(g70
g71
NtRp4249
(dp4250
g74
(dp4251
g82
I1
ssg83
g4245
sg76
(lp4252
I00
asbasbasbag69
(g85
g71
NtRp4253
(dp4254
g74
(dp4255
sg83
g4224
sg76
(lp4256
g69
(g90
g71
NtRp4257
(dp4258
g74
(dp4259
sg83
g4253
sg76
(lp4260
g69
(g70
g71
NtRp4261
(dp4262
g74
(dp4263
g82
I1
ssg83
g4257
sg76
(lp4264
S'http://www.web2py.com/book'
p4265
asbasbasbag69
(g85
g71
NtRp4266
(dp4267
g74
(dp4268
sg83
g4224
sg76
(lp4269
g69
(g90
g71
NtRp4270
(dp4271
g74
(dp4272
sg83
g4266
sg76
(lp4273
g69
(g70
g71
NtRp4274
(dp4275
g74
(dp4276
g82
I1
ssg83
g4270
sg76
(lp4277
(lp4278
(g3855
(S't\x07\x00\x00\x00Preface'
tRp4279
I00
S'http://www.web2py.com/book/default/chapter/00'
p4280
tp4281
a(g3855
(S't\x0c\x00\x00\x00Introduction'
tRp4282
I00
S'http://www.web2py.com/book/default/chapter/01'
p4283
tp4284
a(g3855
(S't\x06\x00\x00\x00Python'
tRp4285
I00
S'http://www.web2py.com/book/default/chapter/02'
p4286
tp4287
a(g3855
(S't\x08\x00\x00\x00Overview'
tRp4288
I00
S'http://www.web2py.com/book/default/chapter/03'
p4289
tp4290
a(g3855
(S's\x08\x00\x00\x00The Core'
tRp4291
I00
S'http://www.web2py.com/book/default/chapter/04'
p4292
tp4293
a(g3855
(S's\t\x00\x00\x00The Views'
tRp4294
I00
S'http://www.web2py.com/book/default/chapter/05'
p4295
tp4296
a(g3855
(S't\x08\x00\x00\x00Database'
tRp4297
I00
S'http://www.web2py.com/book/default/chapter/06'
p4298
tp4299
a(g3855
(S's\x14\x00\x00\x00Forms and Validators'
tRp4300
I00
S'http://www.web2py.com/book/default/chapter/07'
p4301
tp4302
a(g3855
(S's\r\x00\x00\x00Email and SMS'
tRp4303
I00
S'http://www.web2py.com/book/default/chapter/08'
p4304
tp4305
a(g3855
(S's\x0e\x00\x00\x00Access Control'
tRp4306
I00
S'http://www.web2py.com/book/default/chapter/09'
p4307
tp4308
a(g3855
(S't\x08\x00\x00\x00Services'
tRp4309
I00
S'http://www.web2py.com/book/default/chapter/10'
p4310
tp4311
a(g3855
(S's\x0c\x00\x00\x00Ajax Recipes'
tRp4312
I00
S'http://www.web2py.com/book/default/chapter/11'
p4313
tp4314
a(g3855
(S's\x16\x00\x00\x00Components and Plugins'
tRp4315
I00
S'http://www.web2py.com/book/default/chapter/12'
p4316
tp4317
a(g3855
(S's\x12\x00\x00\x00Deployment Recipes'
tRp4318
I00
S'http://www.web2py.com/book/default/chapter/13'
p4319
tp4320
a(g3855
(S's\r\x00\x00\x00Other Recipes'
tRp4321
I00
S'http://www.web2py.com/book/default/chapter/14'
p4322
tp4323
a(g3855
(S's\r\x00\x00\x00Buy this book'
tRp4324
I00
S'http://stores.lulu.com/web2py'
p4325
tp4326
aasbasbasbasbasbasbasbag69
(g85
g71
NtRp4327
(dp4328
g74
(dp4329
sg83
g3969
sg76
(lp4330
g69
(g90
g71
NtRp4331
(dp4332
g74
(dp4333
sg83
g4327
sg76
(lp4334
g69
(g70
g71
NtRp4335
(dp4336
g74
(dp4337
g82
I2
ssg83
g4331
sg76
(lp4338
g69
(g78
g71
NtRp4339
(dp4340
g74
(dp4341
g82
I1
ssg83
Nsg76
(lp4342
g69
(g85
g71
NtRp4343
(dp4344
g74
(dp4345
sg83
g4339
sg76
(lp4346
g69
(g90
g71
NtRp4347
(dp4348
g74
(dp4349
sg83
g4343
sg76
(lp4350
g69
(g70
g71
NtRp4351
(dp4352
g74
(dp4353
g82
I1
ssg83
g4347
sg76
(lp4354
g3855
(S't\t\x00\x00\x00Community'
tRp4355
asbasbasbag69
(g85
g71
NtRp4356
(dp4357
g74
(dp4358
sg83
g4339
sg76
(lp4359
g69
(g90
g71
NtRp4360
(dp4361
g74
(dp4362
sg83
g4356
sg76
(lp4363
g69
(g70
g71
NtRp4364
(dp4365
g74
(dp4366
g82
I1
ssg83
g4360
sg76
(lp4367
I00
asbasbasbag69
(g85
g71
NtRp4368
(dp4369
g74
(dp4370
sg83
g4339
sg76
(lp4371
g69
(g90
g71
NtRp4372
(dp4373
g74
(dp4374
sg83
g4368
sg76
(lp4375
g69
(g70
g71
NtRp4376
(dp4377
g74
(dp4378
g82
I1
ssg83
g4372
sg76
(lp4379
Nasbasbasbag69
(g85
g71
NtRp4380
(dp4381
g74
(dp4382
sg83
g4339
sg76
(lp4383
g69
(g90
g71
NtRp4384
(dp4385
g74
(dp4386
sg83
g4380
sg76
(lp4387
g69
(g70
g71
NtRp4388
(dp4389
g74
(dp4390
g82
I1
ssg83
g4384
sg76
(lp4391
(lp4392
(g3855
(S't\x06\x00\x00\x00Groups'
tRp4393
I00
S'http://www.web2py.com/examples/default/usergroups'
p4394
tp4395
a(g3855
(S't\x07\x00\x00\x00Twitter'
tRp4396
I00
S'http://twitter.com/web2py'
p4397
tp4398
a(g3855
(S's\t\x00\x00\x00Live Chat'
tRp4399
I00
S'http://webchat.freenode.net/?channels=web2py'
p4400
tp4401
aasbasbasbasbasbasbasbag69
(g85
g71
NtRp4402
(dp4403
g74
(dp4404
sg83
g3969
sg76
(lp4405
g69
(g90
g71
NtRp4406
(dp4407
g74
(dp4408
sg83
g4402
sg76
(lp4409
g69
(g70
g71
NtRp4410
(dp4411
g74
(dp4412
g82
I2
ssg83
g4406
sg76
(lp4413
g69
(g78
g71
NtRp4414
(dp4415
g74
(dp4416
g82
I1
ssg83
Nsg76
(lp4417
g69
(g85
g71
NtRp4418
(dp4419
g74
(dp4420
sg83
g4414
sg76
(lp4421
g69
(g90
g71
NtRp4422
(dp4423
g74
(dp4424
sg83
g4418
sg76
(lp4425
g69
(g70
g71
NtRp4426
(dp4427
g74
(dp4428
g82
I1
ssg83
g4422
sg76
(lp4429
g3855
(S't\x07\x00\x00\x00Plugins'
tRp4430
asbasbasbag69
(g85
g71
NtRp4431
(dp4432
g74
(dp4433
sg83
g4414
sg76
(lp4434
g69
(g90
g71
NtRp4435
(dp4436
g74
(dp4437
sg83
g4431
sg76
(lp4438
g69
(g70
g71
NtRp4439
(dp4440
g74
(dp4441
g82
I1
ssg83
g4435
sg76
(lp4442
I00
asbasbasbag69
(g85
g71
NtRp4443
(dp4444
g74
(dp4445
sg83
g4414
sg76
(lp4446
g69
(g90
g71
NtRp4447
(dp4448
g74
(dp4449
sg83
g4443
sg76
(lp4450
g69
(g70
g71
NtRp4451
(dp4452
g74
(dp4453
g82
I1
ssg83
g4447
sg76
(lp4454
Nasbasbasbag69
(g85
g71
NtRp4455
(dp4456
g74
(dp4457
sg83
g4414
sg76
(lp4458
g69
(g90
g71
NtRp4459
(dp4460
g74
(dp4461
sg83
g4455
sg76
(lp4462
g69
(g70
g71
NtRp4463
(dp4464
g74
(dp4465
g82
I1
ssg83
g4459
sg76
(lp4466
(lp4467
(S'plugin_wiki'
p4468
I00
S'http://web2py.com/examples/default/download'
p4469
tp4470
a(g3855
(S's\r\x00\x00\x00Other Plugins'
tRp4471
I00
g4201
tp4472
a(g3855
(S's\x0e\x00\x00\x00Layout Plugins'
tRp4473
I00
g4204
tp4474
aasbasbasbasbasbasbasbasbasbasbasbasbasbasbasbasbasbasbasbag69
(g85
g71
NtRp4475
(dp4476
g74
(dp4477
sg83
g3299
sg76
(lp4478
g69
(g90
g71
NtRp4479
(dp4480
g74
(dp4481
g94
g95
ssg83
g4475
sg76
(lp4482
S'meta'
p4483
asbag69
(g90
g71
NtRp4484
(dp4485
g74
(dp4486
g101
g102
ssg83
g4475
sg76
(lp4487
S':'
asbag69
(g90
g71
NtRp4488
(dp4489
g74
(dp4490
sg83
g4475
sg76
(lp4491
g69
(g70
g71
NtRp4492
(dp4493
g74
(dp4494
g82
I5
ssg83
g4488
sg76
(lp4495
g69
(g78
g71
NtRp4496
(dp4497
g74
(dp4498
g82
I4
ssg83
Nsg76
(lp4499
g69
(g85
g71
NtRp4500
(dp4501
g74
(dp4502
sg83
g4496
sg76
(lp4503
g69
(g90
g71
NtRp4504
(dp4505
g74
(dp4506
g94
g95
ssg83
g4500
sg76
(lp4507
S'author'
p4508
asbag69
(g90
g71
NtRp4509
(dp4510
g74
(dp4511
g101
g102
ssg83
g4500
sg76
(lp4512
S':'
asbag69
(g90
g71
NtRp4513
(dp4514
g74
(dp4515
sg83
g4500
sg76
(lp4516
g69
(g70
g71
NtRp4517
(dp4518
g74
(dp4519
g82
I4
ssg83
g4513
sg76
(lp4520
S'Your Name <you@example.com>'
p4521
asbasbasbag69
(g85
g71
NtRp4522
(dp4523
g74
(dp4524
sg83
g4496
sg76
(lp4525
g69
(g90
g71
NtRp4526
(dp4527
g74
(dp4528
g94
g95
ssg83
g4522
sg76
(lp4529
S'copyright'
p4530
asbag69
(g90
g71
NtRp4531
(dp4532
g74
(dp4533
g101
g102
ssg83
g4522
sg76
(lp4534
S':'
asbag69
(g90
g71
NtRp4535
(dp4536
g74
(dp4537
sg83
g4522
sg76
(lp4538
g69
(g70
g71
NtRp4539
(dp4540
g74
(dp4541
g82
I4
ssg83
g4535
sg76
(lp4542
S'Copyright 2011'
p4543
asbasbasbag69
(g85
g71
NtRp4544
(dp4545
g74
(dp4546
sg83
g4496
sg76
(lp4547
g69
(g90
g71
NtRp4548
(dp4549
g74
(dp4550
g94
g95
ssg83
g4544
sg76
(lp4551
S'description'
p4552
asbag69
(g90
g71
NtRp4553
(dp4554
g74
(dp4555
g101
g102
ssg83
g4544
sg76
(lp4556
S':'
asbag69
(g90
g71
NtRp4557
(dp4558
g74
(dp4559
sg83
g4544
sg76
(lp4560
g69
(g70
g71
NtRp4561
(dp4562
g74
(dp4563
g82
I4
ssg83
g4557
sg76
(lp4564
S'a cool new app'
p4565
asbasbasbag69
(g85
g71
NtRp4566
(dp4567
g74
(dp4568
sg83
g4496
sg76
(lp4569
g69
(g90
g71
NtRp4570
(dp4571
g74
(dp4572
g94
g95
ssg83
g4566
sg76
(lp4573
S'generator'
p4574
asbag69
(g90
g71
NtRp4575
(dp4576
g74
(dp4577
g101
g102
ssg83
g4566
sg76
(lp4578
S':'
asbag69
(g90
g71
NtRp4579
(dp4580
g74
(dp4581
sg83
g4566
sg76
(lp4582
g69
(g70
g71
NtRp4583
(dp4584
g74
(dp4585
g82
I4
ssg83
g4579
sg76
(lp4586
S'Web2py Web Framework'
p4587
asbasbasbag69
(g85
g71
NtRp4588
(dp4589
g74
(dp4590
sg83
g4496
sg76
(lp4591
g69
(g90
g71
NtRp4592
(dp4593
g74
(dp4594
g94
g95
ssg83
g4588
sg76
(lp4595
S'keywords'
p4596
asbag69
(g90
g71
NtRp4597
(dp4598
g74
(dp4599
g101
g102
ssg83
g4588
sg76
(lp4600
S':'
asbag69
(g90
g71
NtRp4601
(dp4602
g74
(dp4603
sg83
g4588
sg76
(lp4604
g69
(g70
g71
NtRp4605
(dp4606
g74
(dp4607
g82
I4
ssg83
g4601
sg76
(lp4608
S'web2py, python, framework'
p4609
asbasbasbasbasbasbasbag69
(g85
g71
NtRp4610
(dp4611
g74
(dp4612
sg83
g3299
sg76
(lp4613
g69
(g90
g71
NtRp4614
(dp4615
g74
(dp4616
g94
g95
ssg83
g4610
sg76
(lp4617
S'postprocessing'
p4618
asbag69
(g90
g71
NtRp4619
(dp4620
g74
(dp4621
g101
g102
ssg83
g4610
sg76
(lp4622
S':'
asbag69
(g90
g71
NtRp4623
(dp4624
g74
(dp4625
sg83
g4610
sg76
(lp4626
g69
(g70
g71
NtRp4627
(dp4628
g74
(dp4629
g82
I5
ssg83
g4623
sg76
(lp4630
g69
(g78
g71
NtRp4631
(dp4632
g74
(dp4633
g82
I4
ssg83
Nsg76
(lp4634
sbasbasbasbag69
(g85
g71
NtRp4635
(dp4636
g74
(dp4637
sg83
g3299
sg76
(lp4638
g69
(g90
g71
NtRp4639
(dp4640
g74
(dp4641
g94
g95
ssg83
g4635
sg76
(lp4642
S'session_file'
p4643
asbag69
(g90
g71
NtRp4644
(dp4645
g74
(dp4646
g101
g102
ssg83
g4635
sg76
(lp4647
S':'
asbag69
(g90
g71
NtRp4648
(dp4649
g74
(dp4650
sg83
g4635
sg76
(lp4651
g69
(g70
g71
NtRp4652
(dp4653
g74
(dp4654
g82
I5
ssg83
g4648
sg76
(lp4655
S"<open file '/home/michael/Projects/Scrum-Web-Application-by-web2py/web2py/applications/Scrum_Web_Application/sessions/127.0.0.1-249863be-67e2-47ba-9b85-a03cb2e9e8ef', mode 'rb+' at 0x21c8300>"
p4656
asbasbasbag69
(g85
g71
NtRp4657
(dp4658
g74
(dp4659
sg83
g3299
sg76
(lp4660
g69
(g90
g71
NtRp4661
(dp4662
g74
(dp4663
g94
g95
ssg83
g4657
sg76
(lp4664
S'session_filename'
p4665
asbag69
(g90
g71
NtRp4666
(dp4667
g74
(dp4668
g101
g102
ssg83
g4657
sg76
(lp4669
S':'
asbag69
(g90
g71
NtRp4670
(dp4671
g74
(dp4672
sg83
g4657
sg76
(lp4673
g69
(g70
g71
NtRp4674
(dp4675
g74
(dp4676
g82
I5
ssg83
g4670
sg76
(lp4677
S'/home/michael/Projects/Scrum-Web-Application-by-web2py/web2py/applications/Scrum_Web_Application/sessions/127.0.0.1-249863be-67e2-47ba-9b85-a03cb2e9e8ef'
p4678
asbasbasbag69
(g85
g71
NtRp4679
(dp4680
g74
(dp4681
sg83
g3299
sg76
(lp4682
g69
(g90
g71
NtRp4683
(dp4684
g74
(dp4685
g94
g95
ssg83
g4679
sg76
(lp4686
S'session_id'
p4687
asbag69
(g90
g71
NtRp4688
(dp4689
g74
(dp4690
g101
g102
ssg83
g4679
sg76
(lp4691
S':'
asbag69
(g90
g71
NtRp4692
(dp4693
g74
(dp4694
sg83
g4679
sg76
(lp4695
g69
(g70
g71
NtRp4696
(dp4697
g74
(dp4698
g82
I5
ssg83
g4692
sg76
(lp4699
S'127.0.0.1-249863be-67e2-47ba-9b85-a03cb2e9e8ef'
p4700
asbasbasbag69
(g85
g71
NtRp4701
(dp4702
g74
(dp4703
sg83
g3299
sg76
(lp4704
g69
(g90
g71
NtRp4705
(dp4706
g74
(dp4707
g94
g95
ssg83
g4701
sg76
(lp4708
S'session_id_name'
p4709
asbag69
(g90
g71
NtRp4710
(dp4711
g74
(dp4712
g101
g102
ssg83
g4701
sg76
(lp4713
S':'
asbag69
(g90
g71
NtRp4714
(dp4715
g74
(dp4716
sg83
g4701
sg76
(lp4717
g69
(g70
g71
NtRp4718
(dp4719
g74
(dp4720
g82
I5
ssg83
g4714
sg76
(lp4721
g3356
asbasbasbag69
(g85
g71
NtRp4722
(dp4723
g74
(dp4724
sg83
g3299
sg76
(lp4725
g69
(g90
g71
NtRp4726
(dp4727
g74
(dp4728
g94
g95
ssg83
g4722
sg76
(lp4729
S'session_locked'
p4730
asbag69
(g90
g71
NtRp4731
(dp4732
g74
(dp4733
g101
g102
ssg83
g4722
sg76
(lp4734
S':'
asbag69
(g90
g71
NtRp4735
(dp4736
g74
(dp4737
sg83
g4722
sg76
(lp4738
g69
(g70
g71
NtRp4739
(dp4740
g74
(dp4741
g82
I5
ssg83
g4735
sg76
(lp4742
g1853
asbasbasbag69
(g85
g71
NtRp4743
(dp4744
g74
(dp4745
sg83
g3299
sg76
(lp4746
g69
(g90
g71
NtRp4747
(dp4748
g74
(dp4749
g94
g95
ssg83
g4743
sg76
(lp4750
S'session_new'
p4751
asbag69
(g90
g71
NtRp4752
(dp4753
g74
(dp4754
g101
g102
ssg83
g4743
sg76
(lp4755
S':'
asbag69
(g90
g71
NtRp4756
(dp4757
g74
(dp4758
sg83
g4743
sg76
(lp4759
g69
(g70
g71
NtRp4760
(dp4761
g74
(dp4762
g82
I5
ssg83
g4756
sg76
(lp4763
g112
asbasbasbag69
(g85
g71
NtRp4764
(dp4765
g74
(dp4766
sg83
g3299
sg76
(lp4767
g69
(g90
g71
NtRp4768
(dp4769
g74
(dp4770
g94
g95
ssg83
g4764
sg76
(lp4771
S'status'
p4772
asbag69
(g90
g71
NtRp4773
(dp4774
g74
(dp4775
g101
g102
ssg83
g4764
sg76
(lp4776
S':'
asbag69
(g90
g71
NtRp4777
(dp4778
g74
(dp4779
sg83
g4764
sg76
(lp4780
g69
(g70
g71
NtRp4781
(dp4782
g74
(dp4783
g82
I5
ssg83
g4777
sg76
(lp4784
S'200'
p4785
asbasbasbag69
(g85
g71
NtRp4786
(dp4787
g74
(dp4788
sg83
g3299
sg76
(lp4789
g69
(g90
g71
NtRp4790
(dp4791
g74
(dp4792
g94
g95
ssg83
g4786
sg76
(lp4793
S'subtitle'
p4794
asbag69
(g90
g71
NtRp4795
(dp4796
g74
(dp4797
g101
g102
ssg83
g4786
sg76
(lp4798
S':'
asbag69
(g90
g71
NtRp4799
(dp4800
g74
(dp4801
sg83
g4786
sg76
(lp4802
g69
(g70
g71
NtRp4803
(dp4804
g74
(dp4805
g82
I5
ssg83
g4799
sg76
(lp4806
g3855
(S's\r\x00\x00\x00customize me!'
tRp4807
asbasbasbag69
(g85
g71
NtRp4808
(dp4809
g74
(dp4810
sg83
g3299
sg76
(lp4811
g69
(g90
g71
NtRp4812
(dp4813
g74
(dp4814
g94
g95
ssg83
g4808
sg76
(lp4815
S'title'
p4816
asbag69
(g90
g71
NtRp4817
(dp4818
g74
(dp4819
g101
g102
ssg83
g4808
sg76
(lp4820
S':'
asbag69
(g90
g71
NtRp4821
(dp4822
g74
(dp4823
sg83
g4808
sg76
(lp4824
g69
(g70
g71
NtRp4825
(dp4826
g74
(dp4827
g82
I5
ssg83
g4821
sg76
(lp4828
S'Scrum Web Application'
p4829
asbasbasbag69
(g85
g71
NtRp4830
(dp4831
g74
(dp4832
sg83
g3299
sg76
(lp4833
g69
(g90
g71
NtRp4834
(dp4835
g74
(dp4836
g94
g95
ssg83
g4830
sg76
(lp4837
g2517
asbag69
(g90
g71
NtRp4838
(dp4839
g74
(dp4840
g101
g102
ssg83
g4830
sg76
(lp4841
S':'
asbag69
(g90
g71
NtRp4842
(dp4843
g74
(dp4844
sg83
g4830
sg76
(lp4845
g69
(g70
g71
NtRp4846
(dp4847
g74
(dp4848
g82
I5
ssg83
g4842
sg76
(lp4849
g2530
asbasbasbag69
(g85
g71
NtRp4850
(dp4851
g74
(dp4852
sg83
g3299
sg76
(lp4853
g69
(g90
g71
NtRp4854
(dp4855
g74
(dp4856
g94
g95
ssg83
g4850
sg76
(lp4857
S'view'
p4858
asbag69
(g90
g71
NtRp4859
(dp4860
g74
(dp4861
g101
g102
ssg83
g4850
sg76
(lp4862
S':'
asbag69
(g90
g71
NtRp4863
(dp4864
g74
(dp4865
sg83
g4850
sg76
(lp4866
g69
(g70
g71
NtRp4867
(dp4868
g74
(dp4869
g82
I5
ssg83
g4863
sg76
(lp4870
S'backlog/index.html'
p4871
asbasbasbasbasbsS'locals'
p4872
(dp4873
g2539
g21
sS'hash_vars'
p4874
g1853
sS'port'
p4875
S'None'
p4876
sS'current'
p4877
S'<thread._local object>'
p4878
sg121
S"'Scrum_Web_Application'"
p4879
sS'user_signature'
p4880
S'None'
p4881
sg1006
S"<Storage {'debugging': False, 'http_user_agent':...[]), 'query_string': '', 'wsgi_run_once': False}>"
p4882
sS'url_encode'
p4883
g1853
sS'scheme'
p4884
S'None'
p4885
sg1998
S"''"
p4886
sS'encode_embedded_slash'
p4887
g112
sg52
S"['product', 'index']"
p4888
sg211
S"'backlog'"
p4889
sS'a'
S'None'
p4890
sS'c'
S'None'
p4891
sS'function2'
p4892
S"'.html'"
p4893
sg1954
S'None'
p4894
sS'f'
S"''"
p4895
sS'items'
p4896
S"['', 'product', 'index']"
p4897
sS'host'
p4898
S'None'
p4899
sS'hmac_key'
p4900
S'None'
p4901
sS'r'
S"<Storage {'body': <cStringIO.StringO object at 0..._vars': <Storage {}>, 'post_vars': <Storage {}>}>"
p4902
sS'salt'
p4903
S'None'
p4904
sS'anchor'
p4905
S"''"
p4906
sssS'traceback'
p4907
S'Traceback (most recent call last):\n  File "/home/michael/Projects/Scrum-Web-Application-by-web2py/web2py/gluon/restricted.py", line 205, in restricted\n    exec ccode in environment\n  File "/home/michael/Projects/Scrum-Web-Application-by-web2py/web2py/applications/Scrum_Web_Application/controllers/backlog.py", line 33, in <module>\n  File "/home/michael/Projects/Scrum-Web-Application-by-web2py/web2py/gluon/globals.py", line 173, in <lambda>\n    self._caller = lambda f: f()\n  File "/home/michael/Projects/Scrum-Web-Application-by-web2py/web2py/applications/Scrum_Web_Application/controllers/backlog.py", line 12, in index\n    this_product = db.product(request.args(0)) or redirect(URL(\'/product/index\'))\n  File "/home/michael/Projects/Scrum-Web-Application-by-web2py/web2py/gluon/html.py", line 274, in URL\n    raise SyntaxError, \'not enough information to build the url\'\nSyntaxError: not enough information to build the url\n'
p4908
s.